

Microchip MPLAB XC8 Assembler V2.40 build 20220703182018 
                                                                                               Fri Mar 03 10:11:37 2023

Microchip MPLAB XC8 C Compiler v2.40 (Free license) build 20220703182018 Og1 
     1                           	processor	16F887
     2                           	pagewidth 120
     3                           	opt	flic
     4                           	psect	cinit,global,class=CODE,merge=1,delta=2
     5                           	psect	bssCOMMON,global,class=COMMON,space=1,delta=1,noexec
     6                           	psect	bssBANK0,global,class=BANK0,space=1,delta=1,noexec
     7                           	psect	cstackCOMMON,global,class=COMMON,space=1,delta=1,noexec
     8                           	psect	cstackBANK0,global,class=BANK0,space=1,delta=1,noexec
     9                           	psect	maintext,global,class=CODE,split=1,delta=2
    10                           	psect	text1,local,class=CODE,merge=1,delta=2
    11                           	psect	text2,local,class=CODE,merge=1,delta=2
    12                           	psect	text3,local,class=CODE,merge=1,delta=2
    13                           	psect	text4,local,class=CODE,merge=1,delta=2
    14                           	psect	text5,local,class=CODE,merge=1,delta=2
    15                           	psect	intentry,global,class=CODE,delta=2
    16                           	psect	idloc,global,abs,ovrld,class=IDLOC,space=5,delta=2,noexec
    17                           	psect	config,global,abs,ovrld,class=CONFIG,space=4,delta=2,noexec
    18                           	dabs	1,0x7E,2
    19     0000                     
    20                           ; Version 2.40
    21                           ; Generated 17/11/2021 GMT
    22                           ; 
    23                           ; Copyright © 2021, Microchip Technology Inc. and its subsidiaries ("Microchip")
    24                           ; All rights reserved.
    25                           ; 
    26                           ; This software is developed by Microchip Technology Inc. and its subsidiaries ("Microch
      +                          ip").
    27                           ; 
    28                           ; Redistribution and use in source and binary forms, with or without modification, are
    29                           ; permitted provided that the following conditions are met:
    30                           ; 
    31                           ;     1. Redistributions of source code must retain the above copyright notice, this lis
      +                          t of
    32                           ;        conditions and the following disclaimer.
    33                           ; 
    34                           ;     2. Redistributions in binary form must reproduce the above copyright notice, this 
      +                          list
    35                           ;        of conditions and the following disclaimer in the documentation and/or other
    36                           ;        materials provided with the distribution. Publication is not required when
    37                           ;        this file is used in an embedded application.
    38                           ; 
    39                           ;     3. Microchip's name may not be used to endorse or promote products derived from th
      +                          is
    40                           ;        software without specific prior written permission.
    41                           ; 
    42                           ; THIS SOFTWARE IS PROVIDED BY MICROCHIP "AS IS" AND ANY EXPRESS OR IMPLIED WARRANTIES,
    43                           ; INCLUDING, BUT NOT LIMITED TO, THE IMPLIED WARRANTIES OF MERCHANTABILITY AND FITNESS F
      +                          OR
    44                           ; PURPOSE ARE DISCLAIMED.  IN NO EVENT SHALL MICROCHIP BE LIABLE FOR ANY DIRECT, INDIREC
      +                          T,
    45                           ; INCIDENTAL, SPECIAL, EXEMPLARY, OR CONSEQUENTIAL DAMAGES (INCLUDING BUT NOT LIMITED TO
    46                           ; PROCUREMENT OF SUBSTITUTE GOODS OR SERVICES; LOSS OF USE, DATA OR PROFITS; OR BUSINESS
    47                           ; INTERRUPTION) HOWSOEVER CAUSED AND ON ANY THEORY OF LIABILITY, WHETHER IN CONTRACT, ST
      +                          RICT
    48                           ; LIABILITY, OR TORT (INCLUDING NEGLIGENCE OR OTHERWISE) ARISING IN ANY WAY OUT OF THE U
      +                          SE OF
    49                           ; THIS SOFTWARE, EVEN IF ADVISED OF THE POSSIBILITY OF SUCH DAMAGE.
    50                           ; 
    51                           ; 
    52                           ; Code-generator required, PIC16F887 Definitions
    53                           ; 
    54                           ; SFR Addresses
    55     0000                     	;# 
    56     0001                     	;# 
    57     0002                     	;# 
    58     0003                     	;# 
    59     0004                     	;# 
    60     0005                     	;# 
    61     0006                     	;# 
    62     0007                     	;# 
    63     0008                     	;# 
    64     0009                     	;# 
    65     000A                     	;# 
    66     000B                     	;# 
    67     000C                     	;# 
    68     000D                     	;# 
    69     000E                     	;# 
    70     000E                     	;# 
    71     000F                     	;# 
    72     0010                     	;# 
    73     0011                     	;# 
    74     0012                     	;# 
    75     0013                     	;# 
    76     0014                     	;# 
    77     0015                     	;# 
    78     0015                     	;# 
    79     0016                     	;# 
    80     0017                     	;# 
    81     0018                     	;# 
    82     0019                     	;# 
    83     001A                     	;# 
    84     001B                     	;# 
    85     001B                     	;# 
    86     001C                     	;# 
    87     001D                     	;# 
    88     001E                     	;# 
    89     001F                     	;# 
    90     0081                     	;# 
    91     0085                     	;# 
    92     0086                     	;# 
    93     0087                     	;# 
    94     0088                     	;# 
    95     0089                     	;# 
    96     008C                     	;# 
    97     008D                     	;# 
    98     008E                     	;# 
    99     008F                     	;# 
   100     0090                     	;# 
   101     0091                     	;# 
   102     0092                     	;# 
   103     0093                     	;# 
   104     0093                     	;# 
   105     0093                     	;# 
   106     0094                     	;# 
   107     0095                     	;# 
   108     0096                     	;# 
   109     0097                     	;# 
   110     0098                     	;# 
   111     0099                     	;# 
   112     009A                     	;# 
   113     009B                     	;# 
   114     009C                     	;# 
   115     009D                     	;# 
   116     009E                     	;# 
   117     009F                     	;# 
   118     0105                     	;# 
   119     0107                     	;# 
   120     0108                     	;# 
   121     0109                     	;# 
   122     010C                     	;# 
   123     010C                     	;# 
   124     010D                     	;# 
   125     010E                     	;# 
   126     010F                     	;# 
   127     0185                     	;# 
   128     0187                     	;# 
   129     0188                     	;# 
   130     0189                     	;# 
   131     018C                     	;# 
   132     018D                     	;# 
   133     0000                     	;# 
   134     0001                     	;# 
   135     0002                     	;# 
   136     0003                     	;# 
   137     0004                     	;# 
   138     0005                     	;# 
   139     0006                     	;# 
   140     0007                     	;# 
   141     0008                     	;# 
   142     0009                     	;# 
   143     000A                     	;# 
   144     000B                     	;# 
   145     000C                     	;# 
   146     000D                     	;# 
   147     000E                     	;# 
   148     000E                     	;# 
   149     000F                     	;# 
   150     0010                     	;# 
   151     0011                     	;# 
   152     0012                     	;# 
   153     0013                     	;# 
   154     0014                     	;# 
   155     0015                     	;# 
   156     0015                     	;# 
   157     0016                     	;# 
   158     0017                     	;# 
   159     0018                     	;# 
   160     0019                     	;# 
   161     001A                     	;# 
   162     001B                     	;# 
   163     001B                     	;# 
   164     001C                     	;# 
   165     001D                     	;# 
   166     001E                     	;# 
   167     001F                     	;# 
   168     0081                     	;# 
   169     0085                     	;# 
   170     0086                     	;# 
   171     0087                     	;# 
   172     0088                     	;# 
   173     0089                     	;# 
   174     008C                     	;# 
   175     008D                     	;# 
   176     008E                     	;# 
   177     008F                     	;# 
   178     0090                     	;# 
   179     0091                     	;# 
   180     0092                     	;# 
   181     0093                     	;# 
   182     0093                     	;# 
   183     0093                     	;# 
   184     0094                     	;# 
   185     0095                     	;# 
   186     0096                     	;# 
   187     0097                     	;# 
   188     0098                     	;# 
   189     0099                     	;# 
   190     009A                     	;# 
   191     009B                     	;# 
   192     009C                     	;# 
   193     009D                     	;# 
   194     009E                     	;# 
   195     009F                     	;# 
   196     0105                     	;# 
   197     0107                     	;# 
   198     0108                     	;# 
   199     0109                     	;# 
   200     010C                     	;# 
   201     010C                     	;# 
   202     010D                     	;# 
   203     010E                     	;# 
   204     010F                     	;# 
   205     0185                     	;# 
   206     0187                     	;# 
   207     0188                     	;# 
   208     0189                     	;# 
   209     018C                     	;# 
   210     018D                     	;# 
   211     0000                     	;# 
   212     0001                     	;# 
   213     0002                     	;# 
   214     0003                     	;# 
   215     0004                     	;# 
   216     0005                     	;# 
   217     0006                     	;# 
   218     0007                     	;# 
   219     0008                     	;# 
   220     0009                     	;# 
   221     000A                     	;# 
   222     000B                     	;# 
   223     000C                     	;# 
   224     000D                     	;# 
   225     000E                     	;# 
   226     000E                     	;# 
   227     000F                     	;# 
   228     0010                     	;# 
   229     0011                     	;# 
   230     0012                     	;# 
   231     0013                     	;# 
   232     0014                     	;# 
   233     0015                     	;# 
   234     0015                     	;# 
   235     0016                     	;# 
   236     0017                     	;# 
   237     0018                     	;# 
   238     0019                     	;# 
   239     001A                     	;# 
   240     001B                     	;# 
   241     001B                     	;# 
   242     001C                     	;# 
   243     001D                     	;# 
   244     001E                     	;# 
   245     001F                     	;# 
   246     0081                     	;# 
   247     0085                     	;# 
   248     0086                     	;# 
   249     0087                     	;# 
   250     0088                     	;# 
   251     0089                     	;# 
   252     008C                     	;# 
   253     008D                     	;# 
   254     008E                     	;# 
   255     008F                     	;# 
   256     0090                     	;# 
   257     0091                     	;# 
   258     0092                     	;# 
   259     0093                     	;# 
   260     0093                     	;# 
   261     0093                     	;# 
   262     0094                     	;# 
   263     0095                     	;# 
   264     0096                     	;# 
   265     0097                     	;# 
   266     0098                     	;# 
   267     0099                     	;# 
   268     009A                     	;# 
   269     009B                     	;# 
   270     009C                     	;# 
   271     009D                     	;# 
   272     009E                     	;# 
   273     009F                     	;# 
   274     0105                     	;# 
   275     0107                     	;# 
   276     0108                     	;# 
   277     0109                     	;# 
   278     010C                     	;# 
   279     010C                     	;# 
   280     010D                     	;# 
   281     010E                     	;# 
   282     010F                     	;# 
   283     0185                     	;# 
   284     0187                     	;# 
   285     0188                     	;# 
   286     0189                     	;# 
   287     018C                     	;# 
   288     018D                     	;# 
   289     0000                     	;# 
   290     0001                     	;# 
   291     0002                     	;# 
   292     0003                     	;# 
   293     0004                     	;# 
   294     0005                     	;# 
   295     0006                     	;# 
   296     0007                     	;# 
   297     0008                     	;# 
   298     0009                     	;# 
   299     000A                     	;# 
   300     000B                     	;# 
   301     000C                     	;# 
   302     000D                     	;# 
   303     000E                     	;# 
   304     000E                     	;# 
   305     000F                     	;# 
   306     0010                     	;# 
   307     0011                     	;# 
   308     0012                     	;# 
   309     0013                     	;# 
   310     0014                     	;# 
   311     0015                     	;# 
   312     0015                     	;# 
   313     0016                     	;# 
   314     0017                     	;# 
   315     0018                     	;# 
   316     0019                     	;# 
   317     001A                     	;# 
   318     001B                     	;# 
   319     001B                     	;# 
   320     001C                     	;# 
   321     001D                     	;# 
   322     001E                     	;# 
   323     001F                     	;# 
   324     0081                     	;# 
   325     0085                     	;# 
   326     0086                     	;# 
   327     0087                     	;# 
   328     0088                     	;# 
   329     0089                     	;# 
   330     008C                     	;# 
   331     008D                     	;# 
   332     008E                     	;# 
   333     008F                     	;# 
   334     0090                     	;# 
   335     0091                     	;# 
   336     0092                     	;# 
   337     0093                     	;# 
   338     0093                     	;# 
   339     0093                     	;# 
   340     0094                     	;# 
   341     0095                     	;# 
   342     0096                     	;# 
   343     0097                     	;# 
   344     0098                     	;# 
   345     0099                     	;# 
   346     009A                     	;# 
   347     009B                     	;# 
   348     009C                     	;# 
   349     009D                     	;# 
   350     009E                     	;# 
   351     009F                     	;# 
   352     0105                     	;# 
   353     0107                     	;# 
   354     0108                     	;# 
   355     0109                     	;# 
   356     010C                     	;# 
   357     010C                     	;# 
   358     010D                     	;# 
   359     010E                     	;# 
   360     010F                     	;# 
   361     0185                     	;# 
   362     0187                     	;# 
   363     0188                     	;# 
   364     0189                     	;# 
   365     018C                     	;# 
   366     018D                     	;# 
   367     0000                     	;# 
   368     0001                     	;# 
   369     0002                     	;# 
   370     0003                     	;# 
   371     0004                     	;# 
   372     0005                     	;# 
   373     0006                     	;# 
   374     0007                     	;# 
   375     0008                     	;# 
   376     0009                     	;# 
   377     000A                     	;# 
   378     000B                     	;# 
   379     000C                     	;# 
   380     000D                     	;# 
   381     000E                     	;# 
   382     000E                     	;# 
   383     000F                     	;# 
   384     0010                     	;# 
   385     0011                     	;# 
   386     0012                     	;# 
   387     0013                     	;# 
   388     0014                     	;# 
   389     0015                     	;# 
   390     0015                     	;# 
   391     0016                     	;# 
   392     0017                     	;# 
   393     0018                     	;# 
   394     0019                     	;# 
   395     001A                     	;# 
   396     001B                     	;# 
   397     001B                     	;# 
   398     001C                     	;# 
   399     001D                     	;# 
   400     001E                     	;# 
   401     001F                     	;# 
   402     0081                     	;# 
   403     0085                     	;# 
   404     0086                     	;# 
   405     0087                     	;# 
   406     0088                     	;# 
   407     0089                     	;# 
   408     008C                     	;# 
   409     008D                     	;# 
   410     008E                     	;# 
   411     008F                     	;# 
   412     0090                     	;# 
   413     0091                     	;# 
   414     0092                     	;# 
   415     0093                     	;# 
   416     0093                     	;# 
   417     0093                     	;# 
   418     0094                     	;# 
   419     0095                     	;# 
   420     0096                     	;# 
   421     0097                     	;# 
   422     0098                     	;# 
   423     0099                     	;# 
   424     009A                     	;# 
   425     009B                     	;# 
   426     009C                     	;# 
   427     009D                     	;# 
   428     009E                     	;# 
   429     009F                     	;# 
   430     0105                     	;# 
   431     0107                     	;# 
   432     0108                     	;# 
   433     0109                     	;# 
   434     010C                     	;# 
   435     010C                     	;# 
   436     010D                     	;# 
   437     010E                     	;# 
   438     010F                     	;# 
   439     0185                     	;# 
   440     0187                     	;# 
   441     0188                     	;# 
   442     0189                     	;# 
   443     018C                     	;# 
   444     018D                     	;# 
   445     001E                     _ADRESH	set	30
   446     001F                     _ADCON0bits	set	31
   447     0005                     _PORTAbits	set	5
   448     0014                     _SSPCON	set	20
   449     0012                     _T2CONbits	set	18
   450     0017                     _CCP1CONbits	set	23
   451     0017                     _CCP1CON	set	23
   452     0008                     _PORTD	set	8
   453     0006                     _PORTB	set	6
   454     0015                     _CCPR1L	set	21
   455     000B                     _INTCONbits	set	11
   456     0006                     _PORTBbits	set	6
   457     0013                     _SSPBUF	set	19
   458     0014                     _SSPCONbits	set	20
   459     000C                     _PIR1bits	set	12
   460     0066                     _ADIF	set	102
   461     0063                     _SSPIF	set	99
   462     005E                     _PEIE	set	94
   463     005F                     _GIE	set	95
   464     0092                     _TMR2ON	set	146
   465     0061                     _TMR2IF	set	97
   466     0058                     _RBIF	set	88
   467     009F                     _ADCON1bits	set	159
   468     0085                     _TRISAbits	set	133
   469     008F                     _OSCCONbits	set	143
   470     0091                     _SSPCON2bits	set	145
   471     0094                     _SSPSTAT	set	148
   472     0093                     _SSPADD	set	147
   473     0091                     _SSPCON2	set	145
   474     0092                     _PR2	set	146
   475     0087                     _TRISCbits	set	135
   476     0081                     _OPTION_REGbits	set	129
   477     0096                     _IOCBbits	set	150
   478     0095                     _WPUBbits	set	149
   479     0088                     _TRISD	set	136
   480     0086                     _TRISB	set	134
   481     0094                     _SSPSTATbits	set	148
   482     0463                     _SSPIE	set	1123
   483     043C                     _TRISC4	set	1084
   484     043B                     _TRISC3	set	1083
   485     04A0                     _BF	set	1184
   486     0188                     _ANSELbits	set	392
   487     0189                     _ANSELH	set	393
   488     0188                     _ANSEL	set	392
   489                           
   490                           	psect	cinit
   491     000F                     start_initialization:	
   492                           ; #config settings
   493                           
   494     000F                     __initialization:
   495                           
   496                           ; Clear objects allocated to COMMON
   497     000F  01F0               	clrf	__pbssCOMMON& (0+127)
   498     0010  01F1               	clrf	(__pbssCOMMON+1)& (0+127)
   499     0011  01F2               	clrf	(__pbssCOMMON+2)& (0+127)
   500     0012  01F3               	clrf	(__pbssCOMMON+3)& (0+127)
   501     0013  01F4               	clrf	(__pbssCOMMON+4)& (0+127)
   502     0014  01F5               	clrf	(__pbssCOMMON+5)& (0+127)
   503     0015  01F6               	clrf	(__pbssCOMMON+6)& (0+127)
   504     0016  01F7               	clrf	(__pbssCOMMON+7)& (0+127)
   505     0017  01F8               	clrf	(__pbssCOMMON+8)& (0+127)
   506                           
   507                           ; Clear objects allocated to BANK0
   508     0018  1283               	bcf	3,5	;RP0=0, select bank0
   509     0019  1303               	bcf	3,6	;RP1=0, select bank0
   510     001A  01A0               	clrf	__pbssBANK0& (0+127)
   511     001B  01A1               	clrf	(__pbssBANK0+1)& (0+127)
   512     001C                     end_of_initialization:	
   513                           ;End of C runtime variable initialization code
   514                           
   515     001C                     __end_of__initialization:
   516     001C  0183               	clrf	3
   517     001D  120A  118A  2907   	ljmp	_main	;jump to C main() function
   518                           
   519                           	psect	bssCOMMON
   520     0070                     __pbssCOMMON:
   521     0070                     _valDCL:
   522     0070                     	ds	2
   523     0072                     _valDC:
   524     0072                     	ds	2
   525     0074                     _ADC_RES:
   526     0074                     	ds	2
   527     0076                     _SERVO:
   528     0076                     	ds	1
   529     0077                     _dato:
   530     0077                     	ds	1
   531     0078                     _z:
   532     0078                     	ds	1
   533                           
   534                           	psect	bssBANK0
   535     0020                     __pbssBANK0:
   536     0020                     _valDCH:
   537     0020                     	ds	2
   538                           
   539                           	psect	cstackCOMMON
   540     0079                     __pcstackCOMMON:
   541     0079                     ?_setupINTOSC:
   542     0079                     ?_setup:	
   543                           ; 1 bytes @ 0x0
   544                           
   545     0079                     ?_setupPWM:	
   546                           ; 1 bytes @ 0x0
   547                           
   548     0079                     ?_I2C_Slave_Init:	
   549                           ; 1 bytes @ 0x0
   550                           
   551     0079                     ?_isr:	
   552                           ; 1 bytes @ 0x0
   553                           
   554     0079                     ??_isr:	
   555                           ; 1 bytes @ 0x0
   556                           
   557     0079                     ?_main:	
   558                           ; 1 bytes @ 0x0
   559                           
   560                           
   561                           ; 1 bytes @ 0x0
   562     0079                     	ds	3
   563                           
   564                           	psect	cstackBANK0
   565     0022                     __pcstackBANK0:
   566     0022                     ??_setupINTOSC:
   567     0022                     ??_setupPWM:	
   568                           ; 1 bytes @ 0x0
   569                           
   570     0022                     ??_I2C_Slave_Init:	
   571                           ; 1 bytes @ 0x0
   572                           
   573     0022                     I2C_Slave_Init@address:	
   574                           ; 1 bytes @ 0x0
   575                           
   576     0022                     setupINTOSC@IRCF:	
   577                           ; 1 bytes @ 0x0
   578                           
   579                           
   580                           ; 1 bytes @ 0x0
   581     0022                     	ds	1
   582     0023                     ??_setup:
   583     0023                     ??_main:	
   584                           ; 1 bytes @ 0x1
   585                           
   586                           
   587                           ; 1 bytes @ 0x1
   588     0023                     	ds	1
   589                           
   590                           	psect	maintext
   591     0107                     __pmaintext:	
   592 ;;
   593 ;;Main: autosize = 0, tempsize = 1, incstack = 0, save=0
   594 ;;
   595 ;; *************** function _main *****************
   596 ;; Defined at:
   597 ;;		line 116 in file "main.c"
   598 ;; Parameters:    Size  Location     Type
   599 ;;		None
   600 ;; Auto vars:     Size  Location     Type
   601 ;;		None
   602 ;; Return value:  Size  Location     Type
   603 ;;                  1    wreg      void 
   604 ;; Registers used:
   605 ;;		wreg, status,2, status,0, pclath, cstack
   606 ;; Tracked objects:
   607 ;;		On entry : B00/0
   608 ;;		On exit  : 0/0
   609 ;;		Unchanged: 0/0
   610 ;; Data sizes:     COMMON   BANK0   BANK1   BANK3   BANK2
   611 ;;      Params:         0       0       0       0       0
   612 ;;      Locals:         0       0       0       0       0
   613 ;;      Temps:          0       1       0       0       0
   614 ;;      Totals:         0       1       0       0       0
   615 ;;Total ram usage:        1 bytes
   616 ;; Hardware stack levels required when called: 3
   617 ;; This function calls:
   618 ;;		_setup
   619 ;;		_setupINTOSC
   620 ;;		_setupPWM
   621 ;; This function is called by:
   622 ;;		Startup code after reset
   623 ;; This function uses a non-reentrant model
   624 ;;
   625                           
   626     0107                     _main:	
   627                           ;psect for function _main
   628                           
   629     0107                     l1142:	
   630                           ;incstack = 0
   631                           ; Regs used in _main: [wreg+status,2+status,0+pclath+cstack]
   632                           
   633                           
   634                           ;main.c: 117:     setupINTOSC(3);
   635     0107  3003               	movlw	3
   636     0108  120A  118A  209F  120A  118A  	fcall	_setupINTOSC
   637                           
   638                           ;main.c: 118:     setup();
   639     010D  120A  118A  2127  120A  118A  	fcall	_setup
   640                           
   641                           ;main.c: 119:     setupPWM();
   642     0112  120A  118A  2163  120A  118A  	fcall	_setupPWM
   643     0117                     l1144:
   644                           
   645                           ;main.c: 121:     dato = 0;
   646     0117  01F7               	clrf	_dato
   647     0118                     l1146:
   648                           
   649                           ;main.c: 127:         CCPR1L = SERVO;
   650     0118  0876               	movf	_SERVO,w
   651     0119  1283               	bcf	3,5	;RP0=0, select bank0
   652     011A  1303               	bcf	3,6	;RP1=0, select bank0
   653     011B  0095               	movwf	21	;volatile
   654     011C                     l1148:
   655                           
   656                           ;main.c: 128:         _delay((unsigned long)((1)*(500000/4000.0)));
   657     011C  3028               	movlw	40
   658     011D  1283               	bcf	3,5	;RP0=0, select bank0
   659     011E  1303               	bcf	3,6	;RP1=0, select bank0
   660     011F  00A3               	movwf	??_main
   661     0120                     u477:
   662     0120  0BA3               	decfsz	??_main,f
   663     0121  2920               	goto	u477
   664     0122  2923               	nop2
   665     0123  2918               	goto	l1146
   666     0124  120A  118A  280C   	ljmp	start
   667     0127                     __end_of_main:
   668                           
   669                           	psect	text1
   670     0163                     __ptext1:	
   671 ;; *************** function _setupPWM *****************
   672 ;; Defined at:
   673 ;;		line 162 in file "main.c"
   674 ;; Parameters:    Size  Location     Type
   675 ;;		None
   676 ;; Auto vars:     Size  Location     Type
   677 ;;		None
   678 ;; Return value:  Size  Location     Type
   679 ;;                  1    wreg      void 
   680 ;; Registers used:
   681 ;;		wreg, status,2, status,0
   682 ;; Tracked objects:
   683 ;;		On entry : 0/0
   684 ;;		On exit  : 0/0
   685 ;;		Unchanged: 0/0
   686 ;; Data sizes:     COMMON   BANK0   BANK1   BANK3   BANK2
   687 ;;      Params:         0       0       0       0       0
   688 ;;      Locals:         0       0       0       0       0
   689 ;;      Temps:          0       0       0       0       0
   690 ;;      Totals:         0       0       0       0       0
   691 ;;Total ram usage:        0 bytes
   692 ;; Hardware stack levels used: 1
   693 ;; Hardware stack levels required when called: 1
   694 ;; This function calls:
   695 ;;		Nothing
   696 ;; This function is called by:
   697 ;;		_main
   698 ;; This function uses a non-reentrant model
   699 ;;
   700                           
   701     0163                     _setupPWM:	
   702                           ;psect for function _setupPWM
   703                           
   704     0163                     l1128:	
   705                           ;incstack = 0
   706                           ; Regs used in _setupPWM: [wreg+status,2+status,0]
   707                           
   708                           
   709                           ;main.c: 164:     TRISCbits.TRISC2 = 1;
   710     0163  1683               	bsf	3,5	;RP0=1, select bank1
   711     0164  1303               	bcf	3,6	;RP1=0, select bank1
   712     0165  1507               	bsf	7,2	;volatile
   713     0166                     l1130:
   714                           
   715                           ;main.c: 166:     PR2 = 155;
   716     0166  309B               	movlw	155
   717     0167  0092               	movwf	18	;volatile
   718                           
   719                           ;main.c: 168:     CCP1CON = 0b00001100;
   720     0168  300C               	movlw	12
   721     0169  1283               	bcf	3,5	;RP0=0, select bank0
   722     016A  1303               	bcf	3,6	;RP1=0, select bank0
   723     016B  0097               	movwf	23	;volatile
   724     016C                     l1132:
   725                           
   726                           ;main.c: 170:     CCP1CONbits.DC1B = valDCL;
   727     016C  30CF               	movlw	-49
   728     016D  0597               	andwf	23,f	;volatile
   729     016E                     l1134:
   730                           
   731                           ;main.c: 171:     CCPR1L = valDCH ;
   732     016E  0195               	clrf	21	;volatile
   733     016F                     l1136:
   734                           
   735                           ;main.c: 173:     TMR2IF = 0;
   736     016F  108C               	bcf	12,1	;volatile
   737     0170                     l1138:
   738                           
   739                           ;main.c: 174:     T2CONbits.T2CKPS = 0b11;
   740     0170  3003               	movlw	3
   741     0171  0492               	iorwf	18,f	;volatile
   742     0172                     l1140:
   743                           
   744                           ;main.c: 175:     TMR2ON = 1;
   745     0172  1512               	bsf	18,2	;volatile
   746     0173                     l112:	
   747                           ;main.c: 177:     while(!TMR2IF);
   748                           
   749     0173  1C8C               	btfss	12,1	;volatile
   750     0174  2976               	goto	u461
   751     0175  2977               	goto	u460
   752     0176                     u461:
   753     0176  2973               	goto	l112
   754     0177                     u460:
   755     0177                     l114:
   756                           
   757                           ;main.c: 178:     TRISCbits.TRISC2 = 0;
   758     0177  1683               	bsf	3,5	;RP0=1, select bank1
   759     0178  1303               	bcf	3,6	;RP1=0, select bank1
   760     0179  1107               	bcf	7,2	;volatile
   761     017A                     l115:
   762     017A  0008               	return
   763     017B                     __end_of_setupPWM:
   764                           
   765                           	psect	text2
   766     009F                     __ptext2:	
   767 ;; *************** function _setupINTOSC *****************
   768 ;; Defined at:
   769 ;;		line 10 in file "../SLAVE1.X/oscilador.c"
   770 ;; Parameters:    Size  Location     Type
   771 ;;  IRCF            1    wreg     unsigned char 
   772 ;; Auto vars:     Size  Location     Type
   773 ;;  IRCF            1    0[BANK0 ] unsigned char 
   774 ;; Return value:  Size  Location     Type
   775 ;;                  1    wreg      void 
   776 ;; Registers used:
   777 ;;		wreg, status,2, status,0
   778 ;; Tracked objects:
   779 ;;		On entry : 0/0
   780 ;;		On exit  : 0/0
   781 ;;		Unchanged: 0/0
   782 ;; Data sizes:     COMMON   BANK0   BANK1   BANK3   BANK2
   783 ;;      Params:         0       0       0       0       0
   784 ;;      Locals:         0       1       0       0       0
   785 ;;      Temps:          0       0       0       0       0
   786 ;;      Totals:         0       1       0       0       0
   787 ;;Total ram usage:        1 bytes
   788 ;; Hardware stack levels used: 1
   789 ;; Hardware stack levels required when called: 1
   790 ;; This function calls:
   791 ;;		Nothing
   792 ;; This function is called by:
   793 ;;		_main
   794 ;; This function uses a non-reentrant model
   795 ;;
   796                           
   797     009F                     _setupINTOSC:	
   798                           ;psect for function _setupINTOSC
   799                           
   800                           
   801                           ;incstack = 0
   802                           ; Regs used in _setupINTOSC: [wreg+status,2+status,0]
   803                           ;setupINTOSC@IRCF stored from wreg
   804     009F  1283               	bcf	3,5	;RP0=0, select bank0
   805     00A0  1303               	bcf	3,6	;RP1=0, select bank0
   806     00A1  00A2               	movwf	setupINTOSC@IRCF
   807     00A2                     l1076:
   808                           
   809                           ;../SLAVE1.X/oscilador.c: 11:     if (IRCF == 7){
   810     00A2  3007               	movlw	7
   811     00A3  0622               	xorwf	setupINTOSC@IRCF,w
   812     00A4  1D03               	btfss	3,2
   813     00A5  28A7               	goto	u381
   814     00A6  28A8               	goto	u380
   815     00A7                     u381:
   816     00A7  28AC               	goto	l175
   817     00A8                     u380:
   818     00A8                     l1078:
   819                           
   820                           ;../SLAVE1.X/oscilador.c: 12:         OSCCONbits.IRCF = 0b111;
   821     00A8  3070               	movlw	112
   822     00A9  1683               	bsf	3,5	;RP0=1, select bank1
   823     00AA  1303               	bcf	3,6	;RP1=0, select bank1
   824     00AB  048F               	iorwf	15,f	;volatile
   825     00AC                     l175:	
   826                           ;../SLAVE1.X/oscilador.c: 13:     }
   827                           
   828                           
   829                           ;../SLAVE1.X/oscilador.c: 14:     if (IRCF == 6){
   830     00AC  3006               	movlw	6
   831     00AD  1283               	bcf	3,5	;RP0=0, select bank0
   832     00AE  0622               	xorwf	setupINTOSC@IRCF,w
   833     00AF  1D03               	btfss	3,2
   834     00B0  28B2               	goto	u391
   835     00B1  28B3               	goto	u390
   836     00B2                     u391:
   837     00B2  28B9               	goto	l176
   838     00B3                     u390:
   839     00B3                     l1080:
   840                           
   841                           ;../SLAVE1.X/oscilador.c: 15:         OSCCONbits.IRCF = 0b110;
   842     00B3  1683               	bsf	3,5	;RP0=1, select bank1
   843     00B4  1303               	bcf	3,6	;RP1=0, select bank1
   844     00B5  080F               	movf	15,w	;volatile
   845     00B6  398F               	andlw	-113
   846     00B7  3860               	iorlw	96
   847     00B8  008F               	movwf	15	;volatile
   848     00B9                     l176:	
   849                           ;../SLAVE1.X/oscilador.c: 16:     }
   850                           
   851                           
   852                           ;../SLAVE1.X/oscilador.c: 17:     if (IRCF == 5){
   853     00B9  3005               	movlw	5
   854     00BA  1283               	bcf	3,5	;RP0=0, select bank0
   855     00BB  0622               	xorwf	setupINTOSC@IRCF,w
   856     00BC  1D03               	btfss	3,2
   857     00BD  28BF               	goto	u401
   858     00BE  28C0               	goto	u400
   859     00BF                     u401:
   860     00BF  28C6               	goto	l177
   861     00C0                     u400:
   862     00C0                     l1082:
   863                           
   864                           ;../SLAVE1.X/oscilador.c: 18:         OSCCONbits.IRCF = 0b101;
   865     00C0  1683               	bsf	3,5	;RP0=1, select bank1
   866     00C1  1303               	bcf	3,6	;RP1=0, select bank1
   867     00C2  080F               	movf	15,w	;volatile
   868     00C3  398F               	andlw	-113
   869     00C4  3850               	iorlw	80
   870     00C5  008F               	movwf	15	;volatile
   871     00C6                     l177:	
   872                           ;../SLAVE1.X/oscilador.c: 19:     }
   873                           
   874                           
   875                           ;../SLAVE1.X/oscilador.c: 20:     if (IRCF == 4){
   876     00C6  3004               	movlw	4
   877     00C7  1283               	bcf	3,5	;RP0=0, select bank0
   878     00C8  0622               	xorwf	setupINTOSC@IRCF,w
   879     00C9  1D03               	btfss	3,2
   880     00CA  28CC               	goto	u411
   881     00CB  28CD               	goto	u410
   882     00CC                     u411:
   883     00CC  28D3               	goto	l178
   884     00CD                     u410:
   885     00CD                     l1084:
   886                           
   887                           ;../SLAVE1.X/oscilador.c: 21:         OSCCONbits.IRCF = 0b100;
   888     00CD  1683               	bsf	3,5	;RP0=1, select bank1
   889     00CE  1303               	bcf	3,6	;RP1=0, select bank1
   890     00CF  080F               	movf	15,w	;volatile
   891     00D0  398F               	andlw	-113
   892     00D1  3840               	iorlw	64
   893     00D2  008F               	movwf	15	;volatile
   894     00D3                     l178:	
   895                           ;../SLAVE1.X/oscilador.c: 22:     }
   896                           
   897                           
   898                           ;../SLAVE1.X/oscilador.c: 23:     if (IRCF == 3){
   899     00D3  3003               	movlw	3
   900     00D4  1283               	bcf	3,5	;RP0=0, select bank0
   901     00D5  0622               	xorwf	setupINTOSC@IRCF,w
   902     00D6  1D03               	btfss	3,2
   903     00D7  28D9               	goto	u421
   904     00D8  28DA               	goto	u420
   905     00D9                     u421:
   906     00D9  28E0               	goto	l179
   907     00DA                     u420:
   908     00DA                     l1086:
   909                           
   910                           ;../SLAVE1.X/oscilador.c: 24:         OSCCONbits.IRCF = 0b011;
   911     00DA  1683               	bsf	3,5	;RP0=1, select bank1
   912     00DB  1303               	bcf	3,6	;RP1=0, select bank1
   913     00DC  080F               	movf	15,w	;volatile
   914     00DD  398F               	andlw	-113
   915     00DE  3830               	iorlw	48
   916     00DF  008F               	movwf	15	;volatile
   917     00E0                     l179:	
   918                           ;../SLAVE1.X/oscilador.c: 25:     }
   919                           
   920                           
   921                           ;../SLAVE1.X/oscilador.c: 26:     if (IRCF == 2){
   922     00E0  3002               	movlw	2
   923     00E1  1283               	bcf	3,5	;RP0=0, select bank0
   924     00E2  0622               	xorwf	setupINTOSC@IRCF,w
   925     00E3  1D03               	btfss	3,2
   926     00E4  28E6               	goto	u431
   927     00E5  28E7               	goto	u430
   928     00E6                     u431:
   929     00E6  28ED               	goto	l180
   930     00E7                     u430:
   931     00E7                     l1088:
   932                           
   933                           ;../SLAVE1.X/oscilador.c: 27:         OSCCONbits.IRCF = 0b010;
   934     00E7  1683               	bsf	3,5	;RP0=1, select bank1
   935     00E8  1303               	bcf	3,6	;RP1=0, select bank1
   936     00E9  080F               	movf	15,w	;volatile
   937     00EA  398F               	andlw	-113
   938     00EB  3820               	iorlw	32
   939     00EC  008F               	movwf	15	;volatile
   940     00ED                     l180:	
   941                           ;../SLAVE1.X/oscilador.c: 28:     }
   942                           
   943                           
   944                           ;../SLAVE1.X/oscilador.c: 29:     if (IRCF == 1){
   945     00ED  1283               	bcf	3,5	;RP0=0, select bank0
   946     00EE  0322               	decf	setupINTOSC@IRCF,w
   947     00EF  1D03               	btfss	3,2
   948     00F0  28F2               	goto	u441
   949     00F1  28F3               	goto	u440
   950     00F2                     u441:
   951     00F2  28F9               	goto	l181
   952     00F3                     u440:
   953     00F3                     l1090:
   954                           
   955                           ;../SLAVE1.X/oscilador.c: 30:         OSCCONbits.IRCF = 0b001;
   956     00F3  1683               	bsf	3,5	;RP0=1, select bank1
   957     00F4  1303               	bcf	3,6	;RP1=0, select bank1
   958     00F5  080F               	movf	15,w	;volatile
   959     00F6  398F               	andlw	-113
   960     00F7  3810               	iorlw	16
   961     00F8  008F               	movwf	15	;volatile
   962     00F9                     l181:	
   963                           ;../SLAVE1.X/oscilador.c: 31:     }
   964                           
   965                           
   966                           ;../SLAVE1.X/oscilador.c: 32:     if (IRCF == 0){
   967     00F9  1283               	bcf	3,5	;RP0=0, select bank0
   968     00FA  0822               	movf	setupINTOSC@IRCF,w
   969     00FB  1D03               	btfss	3,2
   970     00FC  28FE               	goto	u451
   971     00FD  28FF               	goto	u450
   972     00FE                     u451:
   973     00FE  2903               	goto	l1094
   974     00FF                     u450:
   975     00FF                     l1092:
   976                           
   977                           ;../SLAVE1.X/oscilador.c: 33:         OSCCONbits.IRCF = 0b000;
   978     00FF  308F               	movlw	-113
   979     0100  1683               	bsf	3,5	;RP0=1, select bank1
   980     0101  1303               	bcf	3,6	;RP1=0, select bank1
   981     0102  058F               	andwf	15,f	;volatile
   982     0103                     l1094:
   983                           
   984                           ;../SLAVE1.X/oscilador.c: 36:     OSCCONbits.SCS = 1;
   985     0103  1683               	bsf	3,5	;RP0=1, select bank1
   986     0104  1303               	bcf	3,6	;RP1=0, select bank1
   987     0105  140F               	bsf	15,0	;volatile
   988     0106                     l183:
   989     0106  0008               	return
   990     0107                     __end_of_setupINTOSC:
   991                           
   992                           	psect	text3
   993     0127                     __ptext3:	
   994 ;; *************** function _setup *****************
   995 ;; Defined at:
   996 ;;		line 136 in file "main.c"
   997 ;; Parameters:    Size  Location     Type
   998 ;;		None
   999 ;; Auto vars:     Size  Location     Type
  1000 ;;		None
  1001 ;; Return value:  Size  Location     Type
  1002 ;;                  1    wreg      void 
  1003 ;; Registers used:
  1004 ;;		wreg, status,2, status,0, pclath, cstack
  1005 ;; Tracked objects:
  1006 ;;		On entry : 0/0
  1007 ;;		On exit  : 0/0
  1008 ;;		Unchanged: 0/0
  1009 ;; Data sizes:     COMMON   BANK0   BANK1   BANK3   BANK2
  1010 ;;      Params:         0       0       0       0       0
  1011 ;;      Locals:         0       0       0       0       0
  1012 ;;      Temps:          0       0       0       0       0
  1013 ;;      Totals:         0       0       0       0       0
  1014 ;;Total ram usage:        0 bytes
  1015 ;; Hardware stack levels used: 1
  1016 ;; Hardware stack levels required when called: 2
  1017 ;; This function calls:
  1018 ;;		_I2C_Slave_Init
  1019 ;; This function is called by:
  1020 ;;		_main
  1021 ;; This function uses a non-reentrant model
  1022 ;;
  1023                           
  1024     0127                     _setup:	
  1025                           ;psect for function _setup
  1026                           
  1027     0127                     l1096:	
  1028                           ;incstack = 0
  1029                           ; Regs used in _setup: [wreg+status,2+status,0+pclath+cstack]
  1030                           
  1031                           
  1032                           ;main.c: 137:     ANSEL = 0;
  1033     0127  1683               	bsf	3,5	;RP0=1, select bank3
  1034     0128  1703               	bsf	3,6	;RP1=1, select bank3
  1035     0129  0188               	clrf	8	;volatile
  1036                           
  1037                           ;main.c: 138:     ANSELH = 0;
  1038     012A  0189               	clrf	9	;volatile
  1039     012B                     l1098:
  1040                           
  1041                           ;main.c: 140:     TRISB = 0b00000111;
  1042     012B  3007               	movlw	7
  1043     012C  1683               	bsf	3,5	;RP0=1, select bank1
  1044     012D  1303               	bcf	3,6	;RP1=0, select bank1
  1045     012E  0086               	movwf	6	;volatile
  1046     012F                     l1100:
  1047                           
  1048                           ;main.c: 141:     TRISD = 0;
  1049     012F  0188               	clrf	8	;volatile
  1050     0130                     l1102:
  1051                           
  1052                           ;main.c: 143:     PORTB = 0;
  1053     0130  1283               	bcf	3,5	;RP0=0, select bank0
  1054     0131  1303               	bcf	3,6	;RP1=0, select bank0
  1055     0132  0186               	clrf	6	;volatile
  1056     0133                     l1104:
  1057                           
  1058                           ;main.c: 144:     PORTD = 0;
  1059     0133  0188               	clrf	8	;volatile
  1060     0134                     l1106:
  1061                           
  1062                           ;main.c: 147:     INTCONbits.RBIE = 1;
  1063     0134  158B               	bsf	11,3	;volatile
  1064     0135                     l1108:
  1065                           
  1066                           ;main.c: 148:     INTCONbits.RBIF = 0;
  1067     0135  100B               	bcf	11,0	;volatile
  1068     0136                     l1110:
  1069                           
  1070                           ;main.c: 149:     INTCONbits.GIE = 1;
  1071     0136  178B               	bsf	11,7	;volatile
  1072     0137                     l1112:
  1073                           
  1074                           ;main.c: 151:     WPUBbits.WPUB0 = 1;
  1075     0137  1683               	bsf	3,5	;RP0=1, select bank1
  1076     0138  1303               	bcf	3,6	;RP1=0, select bank1
  1077     0139  1415               	bsf	21,0	;volatile
  1078     013A                     l1114:
  1079                           
  1080                           ;main.c: 152:     WPUBbits.WPUB1 = 1;
  1081     013A  1495               	bsf	21,1	;volatile
  1082     013B                     l1116:
  1083                           
  1084                           ;main.c: 153:     IOCBbits.IOCB0 = 1;
  1085     013B  1416               	bsf	22,0	;volatile
  1086     013C                     l1118:
  1087                           
  1088                           ;main.c: 154:     IOCBbits.IOCB1 = 1;
  1089     013C  1496               	bsf	22,1	;volatile
  1090     013D                     l1120:
  1091                           
  1092                           ;main.c: 155:     WPUBbits.WPUB2 = 1;
  1093     013D  1515               	bsf	21,2	;volatile
  1094     013E                     l1122:
  1095                           
  1096                           ;main.c: 156:     IOCBbits.IOCB2 = 1;
  1097     013E  1516               	bsf	22,2	;volatile
  1098     013F                     l1124:
  1099                           
  1100                           ;main.c: 157:     OPTION_REGbits.nRBPU = 0;
  1101     013F  1381               	bcf	1,7	;volatile
  1102     0140                     l1126:
  1103                           
  1104                           ;main.c: 159:     I2C_Slave_Init(0x60);
  1105     0140  3060               	movlw	96
  1106     0141  120A  118A  2147  120A  118A  	fcall	_I2C_Slave_Init
  1107     0146                     l109:
  1108     0146  0008               	return
  1109     0147                     __end_of_setup:
  1110                           
  1111                           	psect	text4
  1112     0147                     __ptext4:	
  1113 ;; *************** function _I2C_Slave_Init *****************
  1114 ;; Defined at:
  1115 ;;		line 93 in file "../SLAVE1.X/I2C.c"
  1116 ;; Parameters:    Size  Location     Type
  1117 ;;  address         1    wreg     unsigned char 
  1118 ;; Auto vars:     Size  Location     Type
  1119 ;;  address         1    0[BANK0 ] unsigned char 
  1120 ;; Return value:  Size  Location     Type
  1121 ;;                  1    wreg      void 
  1122 ;; Registers used:
  1123 ;;		wreg
  1124 ;; Tracked objects:
  1125 ;;		On entry : 0/0
  1126 ;;		On exit  : 0/0
  1127 ;;		Unchanged: 0/0
  1128 ;; Data sizes:     COMMON   BANK0   BANK1   BANK3   BANK2
  1129 ;;      Params:         0       0       0       0       0
  1130 ;;      Locals:         0       1       0       0       0
  1131 ;;      Temps:          0       0       0       0       0
  1132 ;;      Totals:         0       1       0       0       0
  1133 ;;Total ram usage:        1 bytes
  1134 ;; Hardware stack levels used: 1
  1135 ;; Hardware stack levels required when called: 1
  1136 ;; This function calls:
  1137 ;;		Nothing
  1138 ;; This function is called by:
  1139 ;;		_setup
  1140 ;; This function uses a non-reentrant model
  1141 ;;
  1142                           
  1143     0147                     _I2C_Slave_Init:	
  1144                           ;psect for function _I2C_Slave_Init
  1145                           
  1146                           
  1147                           ;incstack = 0
  1148                           ; Regs used in _I2C_Slave_Init: [wreg]
  1149                           ;I2C_Slave_Init@address stored from wreg
  1150     0147  1283               	bcf	3,5	;RP0=0, select bank0
  1151     0148  1303               	bcf	3,6	;RP1=0, select bank0
  1152     0149  00A2               	movwf	I2C_Slave_Init@address
  1153     014A                     l1062:
  1154                           
  1155                           ;../SLAVE1.X/I2C.c: 93: void I2C_Slave_Init(uint8_t address);../SLAVE1.X/I2C.c: 94: {;..
      +                          /SLAVE1.X/I2C.c: 95:     SSPADD = address;
  1156     014A  0822               	movf	I2C_Slave_Init@address,w
  1157     014B  1683               	bsf	3,5	;RP0=1, select bank1
  1158     014C  1303               	bcf	3,6	;RP1=0, select bank1
  1159     014D  0093               	movwf	19	;volatile
  1160                           
  1161                           ;../SLAVE1.X/I2C.c: 96:     SSPCON = 0x36;
  1162     014E  3036               	movlw	54
  1163     014F  1283               	bcf	3,5	;RP0=0, select bank0
  1164     0150  1303               	bcf	3,6	;RP1=0, select bank0
  1165     0151  0094               	movwf	20	;volatile
  1166                           
  1167                           ;../SLAVE1.X/I2C.c: 97:     SSPSTAT = 0x80;
  1168     0152  3080               	movlw	128
  1169     0153  1683               	bsf	3,5	;RP0=1, select bank1
  1170     0154  1303               	bcf	3,6	;RP1=0, select bank1
  1171     0155  0094               	movwf	20	;volatile
  1172                           
  1173                           ;../SLAVE1.X/I2C.c: 98:     SSPCON2 = 0x01;
  1174     0156  3001               	movlw	1
  1175     0157  0091               	movwf	17	;volatile
  1176     0158                     l1064:
  1177                           
  1178                           ;../SLAVE1.X/I2C.c: 99:     TRISC3 = 1;
  1179     0158  1587               	bsf	7,3	;volatile
  1180     0159                     l1066:
  1181                           
  1182                           ;../SLAVE1.X/I2C.c: 100:     TRISC4 = 1;
  1183     0159  1607               	bsf	7,4	;volatile
  1184     015A                     l1068:
  1185                           
  1186                           ;../SLAVE1.X/I2C.c: 101:     GIE = 1;
  1187     015A  178B               	bsf	11,7	;volatile
  1188     015B                     l1070:
  1189                           
  1190                           ;../SLAVE1.X/I2C.c: 102:     PEIE = 1;
  1191     015B  170B               	bsf	11,6	;volatile
  1192     015C                     l1072:
  1193                           
  1194                           ;../SLAVE1.X/I2C.c: 103:     SSPIF = 0;
  1195     015C  1283               	bcf	3,5	;RP0=0, select bank0
  1196     015D  1303               	bcf	3,6	;RP1=0, select bank0
  1197     015E  118C               	bcf	12,3	;volatile
  1198     015F                     l1074:
  1199                           
  1200                           ;../SLAVE1.X/I2C.c: 104:     SSPIE = 1;
  1201     015F  1683               	bsf	3,5	;RP0=1, select bank1
  1202     0160  1303               	bcf	3,6	;RP1=0, select bank1
  1203     0161  158C               	bsf	12,3	;volatile
  1204     0162                     l170:
  1205     0162  0008               	return
  1206     0163                     __end_of_I2C_Slave_Init:
  1207                           
  1208                           	psect	text5
  1209     0020                     __ptext5:	
  1210 ;; *************** function _isr *****************
  1211 ;; Defined at:
  1212 ;;		line 60 in file "main.c"
  1213 ;; Parameters:    Size  Location     Type
  1214 ;;		None
  1215 ;; Auto vars:     Size  Location     Type
  1216 ;;		None
  1217 ;; Return value:  Size  Location     Type
  1218 ;;                  1    wreg      void 
  1219 ;; Registers used:
  1220 ;;		wreg, status,2, status,0
  1221 ;; Tracked objects:
  1222 ;;		On entry : 0/0
  1223 ;;		On exit  : 0/0
  1224 ;;		Unchanged: 0/0
  1225 ;; Data sizes:     COMMON   BANK0   BANK1   BANK3   BANK2
  1226 ;;      Params:         0       0       0       0       0
  1227 ;;      Locals:         0       0       0       0       0
  1228 ;;      Temps:          3       0       0       0       0
  1229 ;;      Totals:         3       0       0       0       0
  1230 ;;Total ram usage:        3 bytes
  1231 ;; Hardware stack levels used: 1
  1232 ;; This function calls:
  1233 ;;		Nothing
  1234 ;; This function is called by:
  1235 ;;		Interrupt level 1
  1236 ;; This function uses a non-reentrant model
  1237 ;;
  1238                           
  1239     0020                     _isr:	
  1240                           ;psect for function _isr
  1241                           
  1242     0020                     i1l896:
  1243                           
  1244                           ;main.c: 61:    if(PIR1bits.SSPIF == 1){
  1245     0020  1283               	bcf	3,5	;RP0=0, select bank0
  1246     0021  1303               	bcf	3,6	;RP1=0, select bank0
  1247     0022  1D8C               	btfss	12,3	;volatile
  1248     0023  2825               	goto	u12_21
  1249     0024  2826               	goto	u12_20
  1250     0025                     u12_21:
  1251     0025  2874               	goto	i1l79
  1252     0026                     u12_20:
  1253     0026                     i1l898:
  1254                           
  1255                           ;main.c: 63:         SSPCONbits.CKP = 0;
  1256     0026  1214               	bcf	20,4	;volatile
  1257                           
  1258                           ;main.c: 65:         if ((SSPCONbits.SSPOV) || (SSPCONbits.WCOL)){
  1259     0027  1B14               	btfsc	20,6	;volatile
  1260     0028  282A               	goto	u13_21
  1261     0029  282B               	goto	u13_20
  1262     002A                     u13_21:
  1263     002A  282F               	goto	i1l902
  1264     002B                     u13_20:
  1265     002B                     i1l900:
  1266     002B  1F94               	btfss	20,7	;volatile
  1267     002C  282E               	goto	u14_21
  1268     002D  282F               	goto	u14_20
  1269     002E                     u14_21:
  1270     002E  2834               	goto	i1l910
  1271     002F                     u14_20:
  1272     002F                     i1l902:
  1273                           
  1274                           ;main.c: 66:             z = SSPBUF;
  1275     002F  0813               	movf	19,w	;volatile
  1276     0030  00F8               	movwf	_z
  1277     0031                     i1l904:
  1278                           
  1279                           ;main.c: 67:             SSPCONbits.SSPOV = 0;
  1280     0031  1314               	bcf	20,6	;volatile
  1281     0032                     i1l906:
  1282                           
  1283                           ;main.c: 68:             SSPCONbits.WCOL = 0;
  1284     0032  1394               	bcf	20,7	;volatile
  1285     0033                     i1l908:
  1286                           
  1287                           ;main.c: 69:             SSPCONbits.CKP = 1;
  1288     0033  1614               	bsf	20,4	;volatile
  1289     0034                     i1l910:
  1290                           
  1291                           ;main.c: 72:         if(!SSPSTATbits.D_nA && !SSPSTATbits.R_nW) {
  1292     0034  1683               	bsf	3,5	;RP0=1, select bank1
  1293     0035  1303               	bcf	3,6	;RP1=0, select bank1
  1294     0036  1A94               	btfsc	20,5	;volatile
  1295     0037  2839               	goto	u15_21
  1296     0038  283A               	goto	u15_20
  1297     0039                     u15_21:
  1298     0039  2855               	goto	i1l83
  1299     003A                     u15_20:
  1300     003A                     i1l912:
  1301     003A  1914               	btfsc	20,2	;volatile
  1302     003B  283D               	goto	u16_21
  1303     003C  283E               	goto	u16_20
  1304     003D                     u16_21:
  1305     003D  2855               	goto	i1l83
  1306     003E                     u16_20:
  1307     003E                     i1l914:
  1308                           
  1309                           ;main.c: 74:             z = SSPBUF;
  1310     003E  1283               	bcf	3,5	;RP0=0, select bank0
  1311     003F  1303               	bcf	3,6	;RP1=0, select bank0
  1312     0040  0813               	movf	19,w	;volatile
  1313     0041  00F8               	movwf	_z
  1314     0042                     i1l916:
  1315                           
  1316                           ;main.c: 76:             PIR1bits.SSPIF = 0;
  1317     0042  118C               	bcf	12,3	;volatile
  1318     0043                     i1l918:
  1319                           
  1320                           ;main.c: 77:             SSPCONbits.CKP = 1;
  1321     0043  1614               	bsf	20,4	;volatile
  1322     0044                     i1l84:	
  1323                           ;main.c: 78:             while(!SSPSTATbits.BF);
  1324                           
  1325     0044  1683               	bsf	3,5	;RP0=1, select bank1
  1326     0045  1303               	bcf	3,6	;RP1=0, select bank1
  1327     0046  1C14               	btfss	20,0	;volatile
  1328     0047  2849               	goto	u17_21
  1329     0048  284A               	goto	u17_20
  1330     0049                     u17_21:
  1331     0049  2844               	goto	i1l84
  1332     004A                     u17_20:
  1333     004A                     i1l920:
  1334                           
  1335                           ;main.c: 79:             z = SSPBUF;
  1336     004A  1283               	bcf	3,5	;RP0=0, select bank0
  1337     004B  1303               	bcf	3,6	;RP1=0, select bank0
  1338     004C  0813               	movf	19,w	;volatile
  1339     004D  00F8               	movwf	_z
  1340                           
  1341                           ;main.c: 80:             dato = SSPBUF;
  1342     004E  0813               	movf	19,w	;volatile
  1343     004F  00F7               	movwf	_dato
  1344                           
  1345                           ;main.c: 81:             _delay((unsigned long)((250)*(500000/4000000.0)));
  1346     0050  300A               	movlw	10
  1347     0051  00F9               	movwf	??_isr
  1348     0052                     u48_27:
  1349     0052  0BF9               	decfsz	??_isr,f
  1350     0053  2852               	goto	u48_27
  1351                           
  1352                           ;main.c: 83:         }else if(!SSPSTATbits.D_nA && SSPSTATbits.R_nW){
  1353     0054  2871               	goto	i1l87
  1354     0055                     i1l83:
  1355     0055  1A94               	btfsc	20,5	;volatile
  1356     0056  2858               	goto	u18_21
  1357     0057  2859               	goto	u18_20
  1358     0058                     u18_21:
  1359     0058  2871               	goto	i1l87
  1360     0059                     u18_20:
  1361     0059                     i1l922:
  1362     0059  1D14               	btfss	20,2	;volatile
  1363     005A  285C               	goto	u19_21
  1364     005B  285D               	goto	u19_20
  1365     005C                     u19_21:
  1366     005C  2871               	goto	i1l87
  1367     005D                     u19_20:
  1368     005D                     i1l924:
  1369                           
  1370                           ;main.c: 84:             z = SSPBUF;
  1371     005D  1283               	bcf	3,5	;RP0=0, select bank0
  1372     005E  1303               	bcf	3,6	;RP1=0, select bank0
  1373     005F  0813               	movf	19,w	;volatile
  1374     0060  00F8               	movwf	_z
  1375     0061                     i1l926:
  1376                           
  1377                           ;main.c: 85:             BF = 0;
  1378     0061  1683               	bsf	3,5	;RP0=1, select bank1
  1379     0062  1303               	bcf	3,6	;RP1=0, select bank1
  1380     0063  1014               	bcf	20,0	;volatile
  1381     0064                     i1l928:
  1382                           
  1383                           ;main.c: 87:             SSPCONbits.CKP = 1;
  1384     0064  1283               	bcf	3,5	;RP0=0, select bank0
  1385     0065  1303               	bcf	3,6	;RP1=0, select bank0
  1386     0066  1614               	bsf	20,4	;volatile
  1387                           
  1388                           ;main.c: 88:             _delay((unsigned long)((250)*(500000/4000000.0)));
  1389     0067  300A               	movlw	10
  1390     0068  00F9               	movwf	??_isr
  1391     0069                     u49_27:
  1392     0069  0BF9               	decfsz	??_isr,f
  1393     006A  2869               	goto	u49_27
  1394     006B                     i1l89:	
  1395                           ;main.c: 89:             while(SSPSTATbits.BF);
  1396                           
  1397     006B  1683               	bsf	3,5	;RP0=1, select bank1
  1398     006C  1303               	bcf	3,6	;RP1=0, select bank1
  1399     006D  1814               	btfsc	20,0	;volatile
  1400     006E  2870               	goto	u20_21
  1401     006F  2871               	goto	u20_20
  1402     0070                     u20_21:
  1403     0070  286B               	goto	i1l89
  1404     0071                     u20_20:
  1405     0071                     i1l87:
  1406                           
  1407                           ;main.c: 92:         PIR1bits.SSPIF = 0;
  1408     0071  1283               	bcf	3,5	;RP0=0, select bank0
  1409     0072  1303               	bcf	3,6	;RP1=0, select bank0
  1410     0073  118C               	bcf	12,3	;volatile
  1411     0074                     i1l79:	
  1412                           ;main.c: 93:     }
  1413                           
  1414                           
  1415                           ;main.c: 96:     if (RBIF == 1){
  1416     0074  1C0B               	btfss	11,0	;volatile
  1417     0075  2877               	goto	u21_21
  1418     0076  2878               	goto	u21_20
  1419     0077                     u21_21:
  1420     0077  2898               	goto	i1l98
  1421     0078                     u21_20:
  1422     0078                     i1l930:
  1423                           
  1424                           ;main.c: 97:     if (PORTBbits.RB0 == 0)
  1425     0078  1806               	btfsc	6,0	;volatile
  1426     0079  287B               	goto	u22_21
  1427     007A  287C               	goto	u22_20
  1428     007B                     u22_21:
  1429     007B  2898               	goto	i1l98
  1430     007C                     u22_20:
  1431     007C                     i1l932:
  1432                           
  1433                           ;main.c: 98:     {;main.c: 99:         _delay((unsigned long)((10)*(500000/4000.0)));
  1434     007C  30F9               	movlw	249
  1435     007D  00F9               	movwf	??_isr
  1436     007E                     u50_27:
  1437     007E  287F               	nop2
  1438     007F  0BF9               	decfsz	??_isr,f
  1439     0080  287E               	goto	u50_27
  1440     0081  2882               	nop2
  1441     0082  2883               	nop2
  1442     0083                     i1l934:
  1443                           
  1444                           ;main.c: 100:         if (PORTBbits.RB0 == 1){
  1445     0083  1283               	bcf	3,5	;RP0=0, select bank0
  1446     0084  1303               	bcf	3,6	;RP1=0, select bank0
  1447     0085  1C06               	btfss	6,0	;volatile
  1448     0086  2888               	goto	u23_21
  1449     0087  2889               	goto	u23_20
  1450     0088                     u23_21:
  1451     0088  2898               	goto	i1l98
  1452     0089                     u23_20:
  1453     0089                     i1l936:
  1454                           
  1455                           ;main.c: 101:             if (SERVO != 0){
  1456     0089  0876               	movf	_SERVO,w
  1457     008A  1903               	btfsc	3,2
  1458     008B  288D               	goto	u24_21
  1459     008C  288E               	goto	u24_20
  1460     008D                     u24_21:
  1461     008D  2890               	goto	i1l940
  1462     008E                     u24_20:
  1463     008E                     i1l938:
  1464                           
  1465                           ;main.c: 102:                 SERVO = 0;
  1466     008E  01F6               	clrf	_SERVO
  1467                           
  1468                           ;main.c: 103:             }
  1469     008F  2897               	goto	i1l944
  1470     0090                     i1l940:
  1471     0090  0876               	movf	_SERVO,w
  1472     0091  1D03               	btfss	3,2
  1473     0092  2894               	goto	u25_21
  1474     0093  2895               	goto	u25_20
  1475     0094                     u25_21:
  1476     0094  2897               	goto	i1l944
  1477     0095                     u25_20:
  1478     0095                     i1l942:
  1479                           
  1480                           ;main.c: 105:                 SERVO = 13;
  1481     0095  300D               	movlw	13
  1482     0096  00F6               	movwf	_SERVO
  1483     0097                     i1l944:
  1484                           
  1485                           ;main.c: 108:             INTCONbits.RBIF = 0;
  1486     0097  100B               	bcf	11,0	;volatile
  1487     0098                     i1l98:
  1488     0098  087B               	movf	??_isr+2,w
  1489     0099  008A               	movwf	10
  1490     009A  0E7A               	swapf	??_isr+1,w
  1491     009B  0083               	movwf	3
  1492     009C  0EFE               	swapf	btemp,f
  1493     009D  0E7E               	swapf	btemp,w
  1494     009E  0009               	retfie
  1495     009F                     __end_of_isr:
  1496     007E                     btemp	set	126	;btemp
  1497     007E                     wtemp0	set	126
  1498                           
  1499                           	psect	intentry
  1500     0004                     __pintentry:	
  1501                           ;incstack = 0
  1502                           ; Regs used in _isr: [wreg+status,2+status,0]
  1503                           
  1504     0004                     interrupt_function:
  1505     007E                     saved_w	set	btemp
  1506     0004  00FE               	movwf	btemp
  1507     0005  0E03               	swapf	3,w
  1508     0006  00FA               	movwf	??_isr+1
  1509     0007  080A               	movf	10,w
  1510     0008  00FB               	movwf	??_isr+2
  1511     0009  120A  118A  2820   	ljmp	_isr
  1512                           
  1513                           	psect	idloc
  1514                           
  1515                           ;Config register IDLOC0 @ 0x2000
  1516                           ;	unspecified, using default values
  1517     2000                     	org	8192
  1518     2000  3FFF               	dw	16383
  1519                           
  1520                           ;Config register IDLOC1 @ 0x2001
  1521                           ;	unspecified, using default values
  1522     2001                     	org	8193
  1523     2001  3FFF               	dw	16383
  1524                           
  1525                           ;Config register IDLOC2 @ 0x2002
  1526                           ;	unspecified, using default values
  1527     2002                     	org	8194
  1528     2002  3FFF               	dw	16383
  1529                           
  1530                           ;Config register IDLOC3 @ 0x2003
  1531                           ;	unspecified, using default values
  1532     2003                     	org	8195
  1533     2003  3FFF               	dw	16383
  1534                           
  1535                           	psect	config
  1536                           
  1537                           ;Config register CONFIG1 @ 0x2007
  1538                           ;	Oscillator Selection bits
  1539                           ;	FOSC = INTRC_NOCLKOUT, INTOSCIO oscillator: I/O function on RA6/OSC2/CLKOUT pin, I/O f
      +                          unction on RA7/OSC1/CLKIN
  1540                           ;	Watchdog Timer Enable bit
  1541                           ;	WDTE = OFF, WDT disabled and can be enabled by SWDTEN bit of the WDTCON register
  1542                           ;	Power-up Timer Enable bit
  1543                           ;	PWRTE = OFF, PWRT disabled
  1544                           ;	RE3/MCLR pin function select bit
  1545                           ;	MCLRE = OFF, RE3/MCLR pin function is digital input, MCLR internally tied to VDD
  1546                           ;	Code Protection bit
  1547                           ;	CP = OFF, Program memory code protection is disabled
  1548                           ;	Data Code Protection bit
  1549                           ;	CPD = OFF, Data memory code protection is disabled
  1550                           ;	Brown Out Reset Selection bits
  1551                           ;	BOREN = OFF, BOR disabled
  1552                           ;	Internal External Switchover bit
  1553                           ;	IESO = OFF, Internal/External Switchover mode is disabled
  1554                           ;	Fail-Safe Clock Monitor Enabled bit
  1555                           ;	FCMEN = OFF, Fail-Safe Clock Monitor is disabled
  1556                           ;	Low Voltage Programming Enable bit
  1557                           ;	LVP = OFF, RB3 pin has digital I/O, HV on MCLR must be used for programming
  1558                           ;	In-Circuit Debugger Mode bit
  1559                           ;	DEBUG = 0x1, unprogramme  1560     2007                     	org	8199
  1561     2007  20D4               	dw	8404
  1562                           
  1563                           ;Config register CONFIG2 @ 0x2008
  1564                           ;	Brown-out Reset Selection bit
  1565                           ;	BOR4V = BOR40V, Brown-out Reset set to 4.0V
  1566                           ;	Flash Program Memory Self Write Enable bits
  1567                           ;	WRT = OFF, Write protection off
  1568     2008                     	org	8200
  1569     2008  3FFF               	dw	16383

Data Sizes:
    Strings     0
    Constant    0
    Data        0
    BSS         11
    Persistent  0
    Stack       0

Auto Spaces:
    Space          Size  Autos    Used
    COMMON           14      3      12
    BANK0            80      2       4
    BANK1            80      0       0
    BANK3            96      0       0
    BANK2            96      0       0

Pointer List with Targets:

    None.

Critical Paths under _main in COMMON

    None.

Critical Paths under _isr in COMMON

    None.

Critical Paths under _main in BANK0

    _main->_setupINTOSC
    _setup->_I2C_Slave_Init

Critical Paths under _isr in BANK0

    None.

Critical Paths under _main in BANK1

    None.

Critical Paths under _isr in BANK1

    None.

Critical Paths under _main in BANK3

    None.

Critical Paths under _isr in BANK3

    None.

Critical Paths under _main in BANK2

    None.

Critical Paths under _isr in BANK2

    None.

Call Graph Tables:

 ---------------------------------------------------------------------------------
 (Depth) Function   	        Calls       Base Space   Used Autos Params    Refs
 ---------------------------------------------------------------------------------
 (0) _main                                                 1     1      0     198
                                              1 BANK0      1     1      0
                              _setup
                        _setupINTOSC
                           _setupPWM
 ---------------------------------------------------------------------------------
 (1) _setupPWM                                             0     0      0       0
 ---------------------------------------------------------------------------------
 (1) _setupINTOSC                                          1     1      0     176
                                              0 BANK0      1     1      0
 ---------------------------------------------------------------------------------
 (1) _setup                                                0     0      0      22
                     _I2C_Slave_Init
 ---------------------------------------------------------------------------------
 (2) _I2C_Slave_Init                                       1     1      0      22
                                              0 BANK0      1     1      0
 ---------------------------------------------------------------------------------
 Estimated maximum stack depth 2
 ---------------------------------------------------------------------------------
 (Depth) Function   	        Calls       Base Space   Used Autos Params    Refs
 ---------------------------------------------------------------------------------
 (3) _isr                                                  3     3      0       0
                                              0 COMMON     3     3      0
 ---------------------------------------------------------------------------------
 Estimated maximum stack depth 3
 ---------------------------------------------------------------------------------

 Call Graph Graphs:

 _main (ROOT)
   _setup
     _I2C_Slave_Init
   _setupINTOSC
   _setupPWM

 _isr (ROOT)

 Address spaces:
Name               Size   Autos  Total    Cost      Usage
BITCOMMON            E      0       0       0        0.0%
EEDATA             100      0       0       0        0.0%
NULL                 0      0       0       0        0.0%
CODE                 0      0       0       0        0.0%
COMMON               E      3       C       1       85.7%
BITSFR0              0      0       0       1        0.0%
SFR0                 0      0       0       1        0.0%
BITSFR1              0      0       0       2        0.0%
SFR1                 0      0       0       2        0.0%
STACK                0      0       0       2        0.0%
ABS                  0      0      10       3        0.0%
BITBANK0            50      0       0       4        0.0%
BITSFR3              0      0       0       4        0.0%
SFR3                 0      0       0       4        0.0%
BANK0               50      2       4       5        5.0%
BITSFR2              0      0       0       5        0.0%
SFR2                 0      0       0       5        0.0%
BITBANK1            50      0       0       6        0.0%
BANK1               50      0       0       7        0.0%
BITBANK3            60      0       0       8        0.0%
BANK3               60      0       0       9        0.0%
BITBANK2            60      0       0      10        0.0%
BANK2               60      0       0      11        0.0%
DATA                 0      0      10      12        0.0%


Microchip Technology PIC Macro Assembler V2.40 build 20220703182018 
Symbol Table                                                                                   Fri Mar 03 10:11:37 2023

                      _z 0078              _SSPSTATbits 0094                       _BF 04A0  
                    l112 0173                      l114 0177                      l115 017A  
                    l109 0146                      l170 0162                      l180 00ED  
                    l181 00F9                      l183 0106                      l175 00AC  
                    l176 00B9                      l177 00C6                      l178 00D3  
                    l179 00E0                      _GIE 005F                      u400 00C0  
                    u401 00BF                      u410 00CD                      u411 00CC  
                    u420 00DA                      u421 00D9                      u430 00E7  
                    _PR2 0092                      u431 00E6                      u440 00F3  
                    u441 00F2                      u450 00FF                      u451 00FE  
                    u380 00A8                      u460 0177                      u381 00A7  
                    u461 0176                      u390 00B3                      u391 00B2  
                    u477 0120                      _isr 0020                     l1100 012F  
                   l1110 0136                     l1102 0130                     l1120 013D  
                   l1112 0137                     l1104 0133                     l1122 013E  
                   l1114 013A                     l1106 0134                     l1130 0166  
                   l1124 013F                     l1116 013B                     l1108 0135  
                   l1140 0172                     l1132 016C                     l1070 015B  
                   l1062 014A                     l1126 0140                     l1118 013C  
                   l1134 016E                     l1142 0107                     l1072 015C  
                   l1064 0158                     l1080 00B3                     l1136 016F  
                   l1128 0163                     l1144 0117                     l1074 015F  
                   l1066 0159                     l1090 00F3                     l1082 00C0  
                   l1138 0170                     l1146 0118                     l1068 015A  
                   l1092 00FF                     l1084 00CD                     l1076 00A2  
                   l1148 011C                     l1094 0103                     l1086 00DA  
                   l1078 00A8                     l1096 0127                     l1088 00E7  
                   l1098 012B                     _ADIF 0066                     ?_isr 0079  
                   _PEIE 005E                     _RBIF 0058                     i1l83 0055  
                   i1l84 0044                     i1l87 0071                     i1l79 0074  
                   i1l89 006B                     i1l98 0098                     _dato 0077  
                   _main 0107                     btemp 007E                     start 000C  
                  ??_isr 0079                    ?_main 0079                    _ANSEL 0188  
                  i1l900 002B                    i1l910 0034                    i1l902 002F  
                  i1l920 004A                    i1l912 003A                    i1l904 0031  
                  i1l930 0078                    i1l922 0059                    i1l914 003E  
                  i1l906 0032                    i1l940 0090                    i1l932 007C  
                  i1l924 005D                    i1l916 0042                    i1l908 0033  
                  i1l942 0095                    i1l934 0083                    i1l926 0061  
                  i1l918 0043                    i1l944 0097                    i1l936 0089  
                  i1l928 0064                    i1l938 008E                    i1l896 0020  
                  i1l898 0026                    u20_20 0071                    u12_20 0026  
                  u20_21 0070                    u12_21 0025                    u21_20 0078  
                  u13_20 002B                    u21_21 0077                    u13_21 002A  
                  u22_20 007C                    u14_20 002F                    u22_21 007B  
                  u14_21 002E                    u23_20 0089                    u15_20 003A  
                  u23_21 0088                    u15_21 0039                    u24_20 008E  
                  u16_20 003E                    u24_21 008D                    u16_21 003D  
                  u25_20 0095                    u17_20 004A                    u25_21 0094  
                  u17_21 0049                    _SERVO 0076                    u18_20 0059  
                  u18_21 0058                    u50_27 007E                    u19_20 005D  
                  u19_21 005C                    _PORTB 0006                    _PORTD 0008  
                  u48_27 0052                    _TRISB 0086                    _TRISD 0088  
                  u49_27 0069                    _SSPIE 0463                    _SSPIF 0063  
                  _valDC 0072                    _setup 0127                    pclath 000A  
                  status 0003                    wtemp0 007E          __initialization 000F  
           __end_of_main 0127                   ??_main 0023                   _ADRESH 001E  
                 _CCPR1L 0015                   ?_setup 0079                   _ANSELH 0189  
                 _TMR2IF 0061                   _TMR2ON 0092                   _SSPADD 0093  
                 _TRISC3 043B                   _TRISC4 043C                   _SSPBUF 0013  
                 _SSPCON 0014                   _valDCH 0020                   _valDCL 0070  
           ?_setupINTOSC 0079         __end_of_setupPWM 017B                   saved_w 007E  
__end_of__initialization 001C           __pcstackCOMMON 0079            __end_of_setup 0147  
         _OPTION_REGbits 0081                  ??_setup 0023    I2C_Slave_Init@address 0022  
             __pbssBANK0 0020               __pmaintext 0107               __pintentry 0004  
                _CCP1CON 0017                  _ADC_RES 0074                  _SSPCON2 0091  
                _SSPSTAT 0094                ?_setupPWM 0079                _ANSELbits 0188  
                __ptext1 0163                  __ptext2 009F                  __ptext3 0127  
                __ptext4 0147                  __ptext5 0020                _T2CONbits 0012  
   end_of_initialization 001C           _I2C_Slave_Init 0147               ??_setupPWM 0022  
              _PORTAbits 0005                _PORTBbits 0006                _TRISAbits 0085  
              _TRISCbits 0087              _CCP1CONbits 0017   __end_of_I2C_Slave_Init 0163  
    start_initialization 000F              __end_of_isr 009F          ?_I2C_Slave_Init 0079  
            __pbssCOMMON 0070                ___latbits 0002            __pcstackBANK0 0022  
        setupINTOSC@IRCF 0022        interrupt_function 0004                 _IOCBbits 0096  
               _PIR1bits 000C               _ADCON0bits 001F               _ADCON1bits 009F  
          ??_setupINTOSC 0022                 _WPUBbits 0095      __end_of_setupINTOSC 0107  
       ??_I2C_Slave_Init 0022                 _setupPWM 0163               _INTCONbits 000B  
               intlevel1 0000               _OSCCONbits 008F              _setupINTOSC 009F  
            _SSPCON2bits 0091               _SSPCONbits 0014  
