

Microchip MPLAB XC8 Assembler V2.40 build 20220703182018 
                                                                                               Fri Mar 03 11:34:24 2023

Microchip MPLAB XC8 C Compiler v2.40 (Free license) build 20220703182018 Og1 
     1                           	processor	16F887
     2                           	pagewidth 120
     3                           	opt	flic
     4                           	psect	strings,global,class=STRING,delta=2,noexec
     5                           	psect	cinit,global,class=CODE,merge=1,delta=2
     6                           	psect	bssCOMMON,global,class=COMMON,space=1,delta=1,noexec
     7                           	psect	bssBANK1,global,class=BANK1,space=1,delta=1,noexec
     8                           	psect	cstackBANK1,global,class=BANK1,space=1,delta=1,noexec
     9                           	psect	cstackCOMMON,global,class=COMMON,space=1,delta=1,noexec
    10                           	psect	cstackBANK0,global,class=BANK0,space=1,delta=1,noexec
    11                           	psect	maintext,global,class=CODE,split=1,delta=2
    12                           	psect	text1,local,class=CODE,merge=1,delta=2
    13                           	psect	text2,local,class=CODE,merge=1,delta=2
    14                           	psect	text3,local,class=CODE,merge=1,delta=2
    15                           	psect	text4,local,class=CODE,merge=1,delta=2
    16                           	psect	text5,local,class=CODE,merge=1,delta=2
    17                           	psect	text6,local,class=CODE,merge=1,delta=2
    18                           	psect	text7,local,class=CODE,merge=1,delta=2
    19                           	psect	text8,local,class=CODE,merge=1,delta=2,group=1
    20                           	psect	text9,local,class=CODE,merge=1,delta=2,group=1
    21                           	psect	text10,local,class=CODE,merge=1,delta=2,group=1
    22                           	psect	text11,local,class=CODE,merge=1,delta=2,group=1
    23                           	psect	text12,local,class=CODE,merge=1,delta=2,group=1
    24                           	psect	text13,local,class=CODE,merge=1,delta=2,group=1
    25                           	psect	text14,local,class=CODE,merge=1,delta=2
    26                           	psect	text15,local,class=CODE,merge=1,delta=2
    27                           	psect	text16,local,class=CODE,merge=1,delta=2
    28                           	psect	intentry,global,class=CODE,delta=2
    29                           	psect	idloc,global,abs,ovrld,class=IDLOC,space=5,delta=2,noexec
    30                           	psect	config,global,abs,ovrld,class=CONFIG,space=4,delta=2,noexec
    31                           	dabs	1,0x7E,2
    32     0000                     
    33                           ; Version 2.40
    34                           ; Generated 17/11/2021 GMT
    35                           ; 
    36                           ; Copyright © 2021, Microchip Technology Inc. and its subsidiaries ("Microchip")
    37                           ; All rights reserved.
    38                           ; 
    39                           ; This software is developed by Microchip Technology Inc. and its subsidiaries ("Microch
      +                          ip").
    40                           ; 
    41                           ; Redistribution and use in source and binary forms, with or without modification, are
    42                           ; permitted provided that the following conditions are met:
    43                           ; 
    44                           ;     1. Redistributions of source code must retain the above copyright notice, this lis
      +                          t of
    45                           ;        conditions and the following disclaimer.
    46                           ; 
    47                           ;     2. Redistributions in binary form must reproduce the above copyright notice, this 
      +                          list
    48                           ;        of conditions and the following disclaimer in the documentation and/or other
    49                           ;        materials provided with the distribution. Publication is not required when
    50                           ;        this file is used in an embedded application.
    51                           ; 
    52                           ;     3. Microchip's name may not be used to endorse or promote products derived from th
      +                          is
    53                           ;        software without specific prior written permission.
    54                           ; 
    55                           ; THIS SOFTWARE IS PROVIDED BY MICROCHIP "AS IS" AND ANY EXPRESS OR IMPLIED WARRANTIES,
    56                           ; INCLUDING, BUT NOT LIMITED TO, THE IMPLIED WARRANTIES OF MERCHANTABILITY AND FITNESS F
      +                          OR
    57                           ; PURPOSE ARE DISCLAIMED.  IN NO EVENT SHALL MICROCHIP BE LIABLE FOR ANY DIRECT, INDIREC
      +                          T,
    58                           ; INCIDENTAL, SPECIAL, EXEMPLARY, OR CONSEQUENTIAL DAMAGES (INCLUDING BUT NOT LIMITED TO
    59                           ; PROCUREMENT OF SUBSTITUTE GOODS OR SERVICES; LOSS OF USE, DATA OR PROFITS; OR BUSINESS
    60                           ; INTERRUPTION) HOWSOEVER CAUSED AND ON ANY THEORY OF LIABILITY, WHETHER IN CONTRACT, ST
      +                          RICT
    61                           ; LIABILITY, OR TORT (INCLUDING NEGLIGENCE OR OTHERWISE) ARISING IN ANY WAY OUT OF THE U
      +                          SE OF
    62                           ; THIS SOFTWARE, EVEN IF ADVISED OF THE POSSIBILITY OF SUCH DAMAGE.
    63                           ; 
    64                           ; 
    65                           ; Code-generator required, PIC16F887 Definitions
    66                           ; 
    67                           ; SFR Addresses
    68     0000                     	;# 
    69     0001                     	;# 
    70     0002                     	;# 
    71     0003                     	;# 
    72     0004                     	;# 
    73     0005                     	;# 
    74     0006                     	;# 
    75     0007                     	;# 
    76     0008                     	;# 
    77     0009                     	;# 
    78     000A                     	;# 
    79     000B                     	;# 
    80     000C                     	;# 
    81     000D                     	;# 
    82     000E                     	;# 
    83     000E                     	;# 
    84     000F                     	;# 
    85     0010                     	;# 
    86     0011                     	;# 
    87     0012                     	;# 
    88     0013                     	;# 
    89     0014                     	;# 
    90     0015                     	;# 
    91     0015                     	;# 
    92     0016                     	;# 
    93     0017                     	;# 
    94     0018                     	;# 
    95     0019                     	;# 
    96     001A                     	;# 
    97     001B                     	;# 
    98     001B                     	;# 
    99     001C                     	;# 
   100     001D                     	;# 
   101     001E                     	;# 
   102     001F                     	;# 
   103     0081                     	;# 
   104     0085                     	;# 
   105     0086                     	;# 
   106     0087                     	;# 
   107     0088                     	;# 
   108     0089                     	;# 
   109     008C                     	;# 
   110     008D                     	;# 
   111     008E                     	;# 
   112     008F                     	;# 
   113     0090                     	;# 
   114     0091                     	;# 
   115     0092                     	;# 
   116     0093                     	;# 
   117     0093                     	;# 
   118     0093                     	;# 
   119     0094                     	;# 
   120     0095                     	;# 
   121     0096                     	;# 
   122     0097                     	;# 
   123     0098                     	;# 
   124     0099                     	;# 
   125     009A                     	;# 
   126     009B                     	;# 
   127     009C                     	;# 
   128     009D                     	;# 
   129     009E                     	;# 
   130     009F                     	;# 
   131     0105                     	;# 
   132     0107                     	;# 
   133     0108                     	;# 
   134     0109                     	;# 
   135     010C                     	;# 
   136     010C                     	;# 
   137     010D                     	;# 
   138     010E                     	;# 
   139     010F                     	;# 
   140     0185                     	;# 
   141     0187                     	;# 
   142     0188                     	;# 
   143     0189                     	;# 
   144     018C                     	;# 
   145     018D                     	;# 
   146     0000                     	;# 
   147     0001                     	;# 
   148     0002                     	;# 
   149     0003                     	;# 
   150     0004                     	;# 
   151     0005                     	;# 
   152     0006                     	;# 
   153     0007                     	;# 
   154     0008                     	;# 
   155     0009                     	;# 
   156     000A                     	;# 
   157     000B                     	;# 
   158     000C                     	;# 
   159     000D                     	;# 
   160     000E                     	;# 
   161     000E                     	;# 
   162     000F                     	;# 
   163     0010                     	;# 
   164     0011                     	;# 
   165     0012                     	;# 
   166     0013                     	;# 
   167     0014                     	;# 
   168     0015                     	;# 
   169     0015                     	;# 
   170     0016                     	;# 
   171     0017                     	;# 
   172     0018                     	;# 
   173     0019                     	;# 
   174     001A                     	;# 
   175     001B                     	;# 
   176     001B                     	;# 
   177     001C                     	;# 
   178     001D                     	;# 
   179     001E                     	;# 
   180     001F                     	;# 
   181     0081                     	;# 
   182     0085                     	;# 
   183     0086                     	;# 
   184     0087                     	;# 
   185     0088                     	;# 
   186     0089                     	;# 
   187     008C                     	;# 
   188     008D                     	;# 
   189     008E                     	;# 
   190     008F                     	;# 
   191     0090                     	;# 
   192     0091                     	;# 
   193     0092                     	;# 
   194     0093                     	;# 
   195     0093                     	;# 
   196     0093                     	;# 
   197     0094                     	;# 
   198     0095                     	;# 
   199     0096                     	;# 
   200     0097                     	;# 
   201     0098                     	;# 
   202     0099                     	;# 
   203     009A                     	;# 
   204     009B                     	;# 
   205     009C                     	;# 
   206     009D                     	;# 
   207     009E                     	;# 
   208     009F                     	;# 
   209     0105                     	;# 
   210     0107                     	;# 
   211     0108                     	;# 
   212     0109                     	;# 
   213     010C                     	;# 
   214     010C                     	;# 
   215     010D                     	;# 
   216     010E                     	;# 
   217     010F                     	;# 
   218     0185                     	;# 
   219     0187                     	;# 
   220     0188                     	;# 
   221     0189                     	;# 
   222     018C                     	;# 
   223     018D                     	;# 
   224     0000                     	;# 
   225     0001                     	;# 
   226     0002                     	;# 
   227     0003                     	;# 
   228     0004                     	;# 
   229     0005                     	;# 
   230     0006                     	;# 
   231     0007                     	;# 
   232     0008                     	;# 
   233     0009                     	;# 
   234     000A                     	;# 
   235     000B                     	;# 
   236     000C                     	;# 
   237     000D                     	;# 
   238     000E                     	;# 
   239     000E                     	;# 
   240     000F                     	;# 
   241     0010                     	;# 
   242     0011                     	;# 
   243     0012                     	;# 
   244     0013                     	;# 
   245     0014                     	;# 
   246     0015                     	;# 
   247     0015                     	;# 
   248     0016                     	;# 
   249     0017                     	;# 
   250     0018                     	;# 
   251     0019                     	;# 
   252     001A                     	;# 
   253     001B                     	;# 
   254     001B                     	;# 
   255     001C                     	;# 
   256     001D                     	;# 
   257     001E                     	;# 
   258     001F                     	;# 
   259     0081                     	;# 
   260     0085                     	;# 
   261     0086                     	;# 
   262     0087                     	;# 
   263     0088                     	;# 
   264     0089                     	;# 
   265     008C                     	;# 
   266     008D                     	;# 
   267     008E                     	;# 
   268     008F                     	;# 
   269     0090                     	;# 
   270     0091                     	;# 
   271     0092                     	;# 
   272     0093                     	;# 
   273     0093                     	;# 
   274     0093                     	;# 
   275     0094                     	;# 
   276     0095                     	;# 
   277     0096                     	;# 
   278     0097                     	;# 
   279     0098                     	;# 
   280     0099                     	;# 
   281     009A                     	;# 
   282     009B                     	;# 
   283     009C                     	;# 
   284     009D                     	;# 
   285     009E                     	;# 
   286     009F                     	;# 
   287     0105                     	;# 
   288     0107                     	;# 
   289     0108                     	;# 
   290     0109                     	;# 
   291     010C                     	;# 
   292     010C                     	;# 
   293     010D                     	;# 
   294     010E                     	;# 
   295     010F                     	;# 
   296     0185                     	;# 
   297     0187                     	;# 
   298     0188                     	;# 
   299     0189                     	;# 
   300     018C                     	;# 
   301     018D                     	;# 
   302     0000                     	;# 
   303     0001                     	;# 
   304     0002                     	;# 
   305     0003                     	;# 
   306     0004                     	;# 
   307     0005                     	;# 
   308     0006                     	;# 
   309     0007                     	;# 
   310     0008                     	;# 
   311     0009                     	;# 
   312     000A                     	;# 
   313     000B                     	;# 
   314     000C                     	;# 
   315     000D                     	;# 
   316     000E                     	;# 
   317     000E                     	;# 
   318     000F                     	;# 
   319     0010                     	;# 
   320     0011                     	;# 
   321     0012                     	;# 
   322     0013                     	;# 
   323     0014                     	;# 
   324     0015                     	;# 
   325     0015                     	;# 
   326     0016                     	;# 
   327     0017                     	;# 
   328     0018                     	;# 
   329     0019                     	;# 
   330     001A                     	;# 
   331     001B                     	;# 
   332     001B                     	;# 
   333     001C                     	;# 
   334     001D                     	;# 
   335     001E                     	;# 
   336     001F                     	;# 
   337     0081                     	;# 
   338     0085                     	;# 
   339     0086                     	;# 
   340     0087                     	;# 
   341     0088                     	;# 
   342     0089                     	;# 
   343     008C                     	;# 
   344     008D                     	;# 
   345     008E                     	;# 
   346     008F                     	;# 
   347     0090                     	;# 
   348     0091                     	;# 
   349     0092                     	;# 
   350     0093                     	;# 
   351     0093                     	;# 
   352     0093                     	;# 
   353     0094                     	;# 
   354     0095                     	;# 
   355     0096                     	;# 
   356     0097                     	;# 
   357     0098                     	;# 
   358     0099                     	;# 
   359     009A                     	;# 
   360     009B                     	;# 
   361     009C                     	;# 
   362     009D                     	;# 
   363     009E                     	;# 
   364     009F                     	;# 
   365     0105                     	;# 
   366     0107                     	;# 
   367     0108                     	;# 
   368     0109                     	;# 
   369     010C                     	;# 
   370     010C                     	;# 
   371     010D                     	;# 
   372     010E                     	;# 
   373     010F                     	;# 
   374     0185                     	;# 
   375     0187                     	;# 
   376     0188                     	;# 
   377     0189                     	;# 
   378     018C                     	;# 
   379     018D                     	;# 
   380     0000                     	;# 
   381     0001                     	;# 
   382     0002                     	;# 
   383     0003                     	;# 
   384     0004                     	;# 
   385     0005                     	;# 
   386     0006                     	;# 
   387     0007                     	;# 
   388     0008                     	;# 
   389     0009                     	;# 
   390     000A                     	;# 
   391     000B                     	;# 
   392     000C                     	;# 
   393     000D                     	;# 
   394     000E                     	;# 
   395     000E                     	;# 
   396     000F                     	;# 
   397     0010                     	;# 
   398     0011                     	;# 
   399     0012                     	;# 
   400     0013                     	;# 
   401     0014                     	;# 
   402     0015                     	;# 
   403     0015                     	;# 
   404     0016                     	;# 
   405     0017                     	;# 
   406     0018                     	;# 
   407     0019                     	;# 
   408     001A                     	;# 
   409     001B                     	;# 
   410     001B                     	;# 
   411     001C                     	;# 
   412     001D                     	;# 
   413     001E                     	;# 
   414     001F                     	;# 
   415     0081                     	;# 
   416     0085                     	;# 
   417     0086                     	;# 
   418     0087                     	;# 
   419     0088                     	;# 
   420     0089                     	;# 
   421     008C                     	;# 
   422     008D                     	;# 
   423     008E                     	;# 
   424     008F                     	;# 
   425     0090                     	;# 
   426     0091                     	;# 
   427     0092                     	;# 
   428     0093                     	;# 
   429     0093                     	;# 
   430     0093                     	;# 
   431     0094                     	;# 
   432     0095                     	;# 
   433     0096                     	;# 
   434     0097                     	;# 
   435     0098                     	;# 
   436     0099                     	;# 
   437     009A                     	;# 
   438     009B                     	;# 
   439     009C                     	;# 
   440     009D                     	;# 
   441     009E                     	;# 
   442     009F                     	;# 
   443     0105                     	;# 
   444     0107                     	;# 
   445     0108                     	;# 
   446     0109                     	;# 
   447     010C                     	;# 
   448     010C                     	;# 
   449     010D                     	;# 
   450     010E                     	;# 
   451     010F                     	;# 
   452     0185                     	;# 
   453     0187                     	;# 
   454     0188                     	;# 
   455     0189                     	;# 
   456     018C                     	;# 
   457     018D                     	;# 
   458                           
   459                           	psect	strings
   460     0800                     __pstrings:
   461     0800                     stringtab:
   462     0800                     __stringtab:
   463     0800                     stringcode:	
   464                           ;	String table - string pointers are 1 byte each
   465                           
   466     0800                     stringdir:
   467     0800  3008               	movlw	high stringdir
   468     0801  008A               	movwf	10
   469     0802  0804               	movf	4,w
   470     0803  0A84               	incf	4,f
   471     0804  0782               	addwf	2,f
   472     0805                     __stringbase:
   473     0805  3400               	retlw	0
   474     0806                     __end_of__stringtab:
   475     0806                     _pwmFreq:
   476     0806  3488               	retlw	136
   477     0807  3413               	retlw	19
   478     0808  3400               	retlw	0
   479     0809  3400               	retlw	0
   480     080A                     __end_of_pwmFreq:
   481     001E                     _ADRESH	set	30
   482     001F                     _ADCON0bits	set	31
   483     0005                     _PORTAbits	set	5
   484     0014                     _SSPCON	set	20
   485     0015                     _CCPR1L	set	21
   486     0012                     _T2CONbits	set	18
   487     0017                     _CCP1CON	set	23
   488     000B                     _INTCONbits	set	11
   489     0008                     _PORTD	set	8
   490     0007                     _PORTC	set	7
   491     0006                     _PORTB	set	6
   492     0008                     _PORTDbits	set	8
   493     0013                     _SSPBUF	set	19
   494     0014                     _SSPCONbits	set	20
   495     000C                     _PIR1bits	set	12
   496     0066                     _ADIF	set	102
   497     0063                     _SSPIF	set	99
   498     005E                     _PEIE	set	94
   499     005F                     _GIE	set	95
   500     0092                     _TMR2ON	set	146
   501     0061                     _TMR2IF	set	97
   502     009F                     _ADCON1bits	set	159
   503     0085                     _TRISAbits	set	133
   504     008F                     _OSCCONbits	set	143
   505     0091                     _SSPCON2bits	set	145
   506     0094                     _SSPSTAT	set	148
   507     0093                     _SSPADD	set	147
   508     0091                     _SSPCON2	set	145
   509     0092                     _PR2	set	146
   510     0087                     _TRISCbits	set	135
   511     0088                     _TRISD	set	136
   512     0086                     _TRISB	set	134
   513     0094                     _SSPSTATbits	set	148
   514     0463                     _SSPIE	set	1123
   515     043C                     _TRISC4	set	1084
   516     043B                     _TRISC3	set	1083
   517     04A0                     _BF	set	1184
   518     0188                     _ANSELbits	set	392
   519     0189                     _ANSELH	set	393
   520     0188                     _ANSEL	set	392
   521                           
   522                           	psect	cinit
   523     000F                     start_initialization:	
   524                           ; #config settings
   525                           
   526     000F                     __initialization:
   527                           
   528                           ; Clear objects allocated to COMMON
   529     000F  01F8               	clrf	__pbssCOMMON& (0+127)
   530     0010  01F9               	clrf	(__pbssCOMMON+1)& (0+127)
   531     0011  01FA               	clrf	(__pbssCOMMON+2)& (0+127)
   532                           
   533                           ; Clear objects allocated to BANK1
   534     0012  1683               	bsf	3,5	;RP0=1, select bank1
   535     0013  1303               	bcf	3,6	;RP1=0, select bank1
   536     0014  01B7               	clrf	__pbssBANK1& (0+127)
   537     0015  01B8               	clrf	(__pbssBANK1+1)& (0+127)
   538     0016  01B9               	clrf	(__pbssBANK1+2)& (0+127)
   539     0017  01BA               	clrf	(__pbssBANK1+3)& (0+127)
   540     0018  01BB               	clrf	(__pbssBANK1+4)& (0+127)
   541     0019  01BC               	clrf	(__pbssBANK1+5)& (0+127)
   542     001A  01BD               	clrf	(__pbssBANK1+6)& (0+127)
   543     001B  01BE               	clrf	(__pbssBANK1+7)& (0+127)
   544     001C  01BF               	clrf	(__pbssBANK1+8)& (0+127)
   545     001D  01C0               	clrf	(__pbssBANK1+9)& (0+127)
   546     001E  01C1               	clrf	(__pbssBANK1+10)& (0+127)
   547     001F  01C2               	clrf	(__pbssBANK1+11)& (0+127)
   548     0020  01C3               	clrf	(__pbssBANK1+12)& (0+127)
   549     0021                     end_of_initialization:	
   550                           ;End of C runtime variable initialization code
   551                           
   552     0021                     __end_of__initialization:
   553     0021  0183               	clrf	3
   554     0022  120A  158A  2E94   	ljmp	_main	;jump to C main() function
   555                           
   556                           	psect	bssCOMMON
   557     0078                     __pbssCOMMON:
   558     0078                     _ADC_RES:
   559     0078                     	ds	2
   560     007A                     _vel:
   561     007A                     	ds	1
   562                           
   563                           	psect	bssBANK1
   564     00B7                     __pbssBANK1:
   565     00B7                     _dutyCycleApply:
   566     00B7                     	ds	2
   567     00B9                     _dutycycle:
   568     00B9                     	ds	2
   569     00BB                     _valDCH:
   570     00BB                     	ds	2
   571     00BD                     _valDCL:
   572     00BD                     	ds	2
   573     00BF                     _valDC:
   574     00BF                     	ds	2
   575     00C1                     _dato:
   576     00C1                     	ds	1
   577     00C2                     _z:
   578     00C2                     	ds	1
   579     00C3                     _ADC:
   580     00C3                     	ds	1
   581                           
   582                           	psect	cstackBANK1
   583     00A0                     __pcstackBANK1:
   584     00A0                     ___flmul@sign:
   585                           
   586                           ; 1 bytes @ 0x0
   587     00A0                     	ds	1
   588     00A1                     ___flmul@aexp:
   589                           
   590                           ; 1 bytes @ 0x1
   591     00A1                     	ds	1
   592     00A2                     ___flmul@grs:
   593                           
   594                           ; 4 bytes @ 0x2
   595     00A2                     	ds	4
   596     00A6                     ___flmul@bexp:
   597                           
   598                           ; 1 bytes @ 0x6
   599     00A6                     	ds	1
   600     00A7                     ___flmul@prod:
   601                           
   602                           ; 4 bytes @ 0x7
   603     00A7                     	ds	4
   604     00AB                     ___flmul@temp:
   605                           
   606                           ; 2 bytes @ 0xB
   607     00AB                     	ds	2
   608     00AD                     ?___fltol:
   609     00AD                     ___fltol@f1:	
   610                           ; 4 bytes @ 0xD
   611                           
   612                           
   613                           ; 4 bytes @ 0xD
   614     00AD                     	ds	4
   615     00B1                     ?_applyPWMDutyCycle:
   616     00B1                     applyPWMDutyCycle@dutyCycle:	
   617                           ; 1 bytes @ 0x11
   618                           
   619                           
   620                           ; 2 bytes @ 0x11
   621     00B1                     	ds	2
   622     00B3                     applyPWMDutyCycle@freq:
   623                           
   624                           ; 4 bytes @ 0x13
   625     00B3                     	ds	4
   626                           
   627                           	psect	cstackCOMMON
   628     0070                     __pcstackCOMMON:
   629     0070                     ?_setupINTOSC:
   630     0070                     ?_setup:	
   631                           ; 1 bytes @ 0x0
   632                           
   633     0070                     ?_setupPWM:	
   634                           ; 1 bytes @ 0x0
   635                           
   636     0070                     ?_I2C_Slave_Init:	
   637                           ; 1 bytes @ 0x0
   638                           
   639     0070                     ?_isr:	
   640                           ; 1 bytes @ 0x0
   641                           
   642     0070                     ??_isr:	
   643                           ; 1 bytes @ 0x0
   644                           
   645     0070                     ?_main:	
   646                           ; 1 bytes @ 0x0
   647                           
   648                           
   649                           ; 1 bytes @ 0x0
   650     0070                     	ds	3
   651     0073                     ??_setupINTOSC:
   652     0073                     ??_setupPWM:	
   653                           ; 1 bytes @ 0x3
   654                           
   655     0073                     ?_ADC_config:	
   656                           ; 1 bytes @ 0x3
   657                           
   658     0073                     ??_I2C_Slave_Init:	
   659                           ; 1 bytes @ 0x3
   660                           
   661     0073                     ??___lldiv:	
   662                           ; 1 bytes @ 0x3
   663                           
   664     0073                     ?_ADC_read:	
   665                           ; 1 bytes @ 0x3
   666                           
   667     0073                     ?__Umul8_16:	
   668                           ; 2 bytes @ 0x3
   669                           
   670     0073                     I2C_Slave_Init@address:	
   671                           ; 2 bytes @ 0x3
   672                           
   673     0073                     setupINTOSC@IRCF:	
   674                           ; 1 bytes @ 0x3
   675                           
   676     0073                     __Umul8_16@multiplicand:	
   677                           ; 1 bytes @ 0x3
   678                           
   679     0073                     ADC_config@channel:	
   680                           ; 1 bytes @ 0x3
   681                           
   682     0073                     ADC_read@channel:	
   683                           ; 2 bytes @ 0x3
   684                           
   685                           
   686                           ; 2 bytes @ 0x3
   687     0073                     	ds	1
   688     0074                     ??_setup:
   689     0074                     ??_initPwm:	
   690                           ; 1 bytes @ 0x4
   691                           
   692     0074                     ??_pwmMaxDuty:	
   693                           ; 1 bytes @ 0x4
   694                           
   695                           
   696                           ; 1 bytes @ 0x4
   697     0074                     	ds	1
   698     0075                     ??_ADC_config:
   699     0075                     ??_ADC_read:	
   700                           ; 1 bytes @ 0x5
   701                           
   702     0075                     ??__Umul8_16:	
   703                           ; 1 bytes @ 0x5
   704                           
   705                           
   706                           ; 1 bytes @ 0x5
   707     0075                     	ds	3
   708                           
   709                           	psect	cstackBANK0
   710     0020                     __pcstackBANK0:
   711     0020                     ?___lldiv:
   712     0020                     __Umul8_16@product:	
   713                           ; 4 bytes @ 0x0
   714                           
   715     0020                     ___lldiv@divisor:	
   716                           ; 2 bytes @ 0x0
   717                           
   718                           
   719                           ; 4 bytes @ 0x0
   720     0020                     	ds	2
   721     0022                     __Umul8_16@word_mpld:
   722                           
   723                           ; 2 bytes @ 0x2
   724     0022                     	ds	2
   725     0024                     __Umul8_16@multiplier:
   726     0024                     ___lldiv@dividend:	
   727                           ; 1 bytes @ 0x4
   728                           
   729                           
   730                           ; 4 bytes @ 0x4
   731     0024                     	ds	4
   732     0028                     ___lldiv@quotient:
   733                           
   734                           ; 4 bytes @ 0x8
   735     0028                     	ds	4
   736     002C                     ___lldiv@counter:
   737                           
   738                           ; 1 bytes @ 0xC
   739     002C                     	ds	1
   740     002D                     ?_initPwm:
   741     002D                     ?_pwmMaxDuty:	
   742                           ; 1 bytes @ 0xD
   743                           
   744     002D                     pwmMaxDuty@freq:	
   745                           ; 4 bytes @ 0xD
   746                           
   747     002D                     initPwm@freq:	
   748                           ; 4 bytes @ 0xD
   749                           
   750                           
   751                           ; 4 bytes @ 0xD
   752     002D                     	ds	4
   753     0031                     ?___xxtofl:
   754     0031                     ___xxtofl@val:	
   755                           ; 4 bytes @ 0x11
   756                           
   757                           
   758                           ; 4 bytes @ 0x11
   759     0031                     	ds	4
   760     0035                     ??___xxtofl:
   761                           
   762                           ; 1 bytes @ 0x15
   763     0035                     	ds	4
   764     0039                     ___xxtofl@sign:
   765                           
   766                           ; 1 bytes @ 0x19
   767     0039                     	ds	1
   768     003A                     ___xxtofl@exp:
   769                           
   770                           ; 1 bytes @ 0x1A
   771     003A                     	ds	1
   772     003B                     ___xxtofl@arg:
   773                           
   774                           ; 4 bytes @ 0x1B
   775     003B                     	ds	4
   776     003F                     ?___fldiv:
   777     003F                     ___fldiv@a:	
   778                           ; 4 bytes @ 0x1F
   779                           
   780                           
   781                           ; 4 bytes @ 0x1F
   782     003F                     	ds	4
   783     0043                     ___fldiv@b:
   784                           
   785                           ; 4 bytes @ 0x23
   786     0043                     	ds	4
   787     0047                     ??___fldiv:
   788                           
   789                           ; 1 bytes @ 0x27
   790     0047                     	ds	5
   791     004C                     ___fldiv@rem:
   792                           
   793                           ; 4 bytes @ 0x2C
   794     004C                     	ds	4
   795     0050                     ___fldiv@sign:
   796                           
   797                           ; 1 bytes @ 0x30
   798     0050                     	ds	1
   799     0051                     ___fldiv@new_exp:
   800                           
   801                           ; 2 bytes @ 0x31
   802     0051                     	ds	2
   803     0053                     ___fldiv@grs:
   804                           
   805                           ; 4 bytes @ 0x33
   806     0053                     	ds	4
   807     0057                     ___fldiv@bexp:
   808                           
   809                           ; 1 bytes @ 0x37
   810     0057                     	ds	1
   811     0058                     ___fldiv@aexp:
   812                           
   813                           ; 1 bytes @ 0x38
   814     0058                     	ds	1
   815     0059                     ?___flmul:
   816     0059                     ___flmul@b:	
   817                           ; 4 bytes @ 0x39
   818                           
   819                           
   820                           ; 4 bytes @ 0x39
   821     0059                     	ds	4
   822     005D                     ___flmul@a:
   823                           
   824                           ; 4 bytes @ 0x3D
   825     005D                     	ds	4
   826     0061                     ??___flmul:
   827                           
   828                           ; 1 bytes @ 0x41
   829     0061                     	ds	5
   830     0066                     ??___fltol:
   831                           
   832                           ; 1 bytes @ 0x46
   833     0066                     	ds	4
   834     006A                     ___fltol@sign1:
   835                           
   836                           ; 1 bytes @ 0x4A
   837     006A                     	ds	1
   838     006B                     ___fltol@exp1:
   839                           
   840                           ; 1 bytes @ 0x4B
   841     006B                     	ds	1
   842     006C                     ??_applyPWMDutyCycle:
   843                           
   844                           ; 1 bytes @ 0x4C
   845     006C                     	ds	2
   846     006E                     ??_main:
   847                           
   848                           ; 1 bytes @ 0x4E
   849     006E                     	ds	2
   850                           
   851                           	psect	maintext
   852     0E94                     __pmaintext:	
   853 ;;
   854 ;;Main: autosize = 0, tempsize = 2, incstack = 0, save=0
   855 ;;
   856 ;; *************** function _main *****************
   857 ;; Defined at:
   858 ;;		line 103 in file "main.c"
   859 ;; Parameters:    Size  Location     Type
   860 ;;		None
   861 ;; Auto vars:     Size  Location     Type
   862 ;;		None
   863 ;; Return value:  Size  Location     Type
   864 ;;                  1    wreg      void 
   865 ;; Registers used:
   866 ;;		wreg, status,2, status,0, btemp+1, pclath, cstack
   867 ;; Tracked objects:
   868 ;;		On entry : B00/0
   869 ;;		On exit  : 0/0
   870 ;;		Unchanged: 0/0
   871 ;; Data sizes:     COMMON   BANK0   BANK1   BANK3   BANK2
   872 ;;      Params:         0       0       0       0       0
   873 ;;      Locals:         0       0       0       0       0
   874 ;;      Temps:          0       2       0       0       0
   875 ;;      Totals:         0       2       0       0       0
   876 ;;Total ram usage:        2 bytes
   877 ;; Hardware stack levels required when called: 4
   878 ;; This function calls:
   879 ;;		_ADC_config
   880 ;;		_ADC_read
   881 ;;		_applyPWMDutyCycle
   882 ;;		_initPwm
   883 ;;		_setup
   884 ;;		_setupINTOSC
   885 ;;		_setupPWM
   886 ;; This function is called by:
   887 ;;		Startup code after reset
   888 ;; This function uses a non-reentrant model
   889 ;;
   890                           
   891     0E94                     _main:	
   892                           ;psect for function _main
   893                           
   894     0E94                     l2275:	
   895                           ;incstack = 0
   896                           ; Regs used in _main: [wreg+status,2+status,0+btemp+1+pclath+cstack]
   897                           
   898                           
   899                           ;main.c: 104:     setupINTOSC(5);
   900     0E94  3005               	movlw	5
   901     0E95  120A  158A  24C6  120A  158A  	fcall	_setupINTOSC
   902                           
   903                           ;main.c: 105:     setup();
   904     0E9A  120A  158A  2394  120A  158A  	fcall	_setup
   905                           
   906                           ;main.c: 106:     setupPWM();
   907     0E9F  120A  158A  23A9  120A  158A  	fcall	_setupPWM
   908                           
   909                           ;main.c: 107:     initPwm(pwmFreq);
   910     0EA4  3000               	movlw	0
   911     0EA5  1283               	bcf	3,5	;RP0=0, select bank0
   912     0EA6  1303               	bcf	3,6	;RP1=0, select bank0
   913     0EA7  00B0               	movwf	initPwm@freq+3
   914     0EA8  3000               	movlw	0
   915     0EA9  00AF               	movwf	initPwm@freq+2
   916     0EAA  3013               	movlw	19
   917     0EAB  00AE               	movwf	initPwm@freq+1
   918     0EAC  3088               	movlw	136
   919     0EAD  00AD               	movwf	initPwm@freq
   920     0EAE  120A  158A  243A  120A  158A  	fcall	_initPwm
   921     0EB3                     l2277:
   922                           
   923                           ;main.c: 108:     applyPWMDutyCycle(dutycycle,pwmFreq);
   924     0EB3  1683               	bsf	3,5	;RP0=1, select bank1
   925     0EB4  1303               	bcf	3,6	;RP1=0, select bank1
   926     0EB5  083A               	movf	(_dutycycle+1)^(0+128),w
   927     0EB6  00B2               	movwf	(applyPWMDutyCycle@dutyCycle+1)^(0+128)
   928     0EB7  0839               	movf	_dutycycle^(0+128),w
   929     0EB8  00B1               	movwf	applyPWMDutyCycle@dutyCycle^(0+128)
   930     0EB9  3000               	movlw	0
   931     0EBA  00B6               	movwf	(applyPWMDutyCycle@freq+3)^(0+128)
   932     0EBB  3000               	movlw	0
   933     0EBC  00B5               	movwf	(applyPWMDutyCycle@freq+2)^(0+128)
   934     0EBD  3013               	movlw	19
   935     0EBE  00B4               	movwf	(applyPWMDutyCycle@freq+1)^(0+128)
   936     0EBF  3088               	movlw	136
   937     0EC0  00B3               	movwf	applyPWMDutyCycle@freq^(0+128)
   938     0EC1  120A  118A  2701  120A  158A  	fcall	_applyPWMDutyCycle
   939     0EC6                     l2279:
   940                           
   941                           ;main.c: 109:     ADC_config(0x01);
   942     0EC6  3001               	movlw	1
   943     0EC7  00F3               	movwf	ADC_config@channel
   944     0EC8  3000               	movlw	0
   945     0EC9  00F4               	movwf	ADC_config@channel+1
   946     0ECA  120A  158A  2401  120A  158A  	fcall	_ADC_config
   947     0ECF                     l2281:
   948                           
   949                           ;main.c: 110:     dato = 0;
   950     0ECF  1683               	bsf	3,5	;RP0=1, select bank1
   951     0ED0  1303               	bcf	3,6	;RP1=0, select bank1
   952     0ED1  01C1               	clrf	_dato^(0+128)
   953     0ED2                     l2283:
   954                           
   955                           ;main.c: 111:     z=1;
   956     0ED2  01C2               	clrf	_z^(0+128)
   957     0ED3  0AC2               	incf	_z^(0+128),f
   958     0ED4                     l2285:
   959                           
   960                           ;main.c: 116:         if (z == 1){
   961     0ED4  0342               	decf	_z^(0+128),w
   962     0ED5  1D03               	btfss	3,2
   963     0ED6  2ED8               	goto	u3401
   964     0ED7  2ED9               	goto	u3400
   965     0ED8                     u3401:
   966     0ED8  2F20               	goto	l2299
   967     0ED9                     u3400:
   968     0ED9                     l2287:
   969                           
   970                           ;main.c: 117:             PORTDbits.RD0 = 0;
   971     0ED9  1283               	bcf	3,5	;RP0=0, select bank0
   972     0EDA  1303               	bcf	3,6	;RP1=0, select bank0
   973     0EDB  1008               	bcf	8,0	;volatile
   974                           
   975                           ;main.c: 118:             PORTDbits.RD1 = 1;
   976     0EDC  1488               	bsf	8,1	;volatile
   977     0EDD                     l2289:
   978                           
   979                           ;main.c: 119:             ADC = ADC_read(0);
   980     0EDD  3000               	movlw	0
   981     0EDE  00F3               	movwf	ADC_read@channel
   982     0EDF  00F4               	movwf	ADC_read@channel+1
   983     0EE0  120A  158A  2473  120A  158A  	fcall	_ADC_read
   984     0EE5  0873               	movf	?_ADC_read,w
   985     0EE6  1683               	bsf	3,5	;RP0=1, select bank1
   986     0EE7  1303               	bcf	3,6	;RP1=0, select bank1
   987     0EE8  00C3               	movwf	_ADC^(0+128)
   988     0EE9                     l2291:
   989                           
   990                           ;main.c: 120:             dutycycle = 4*ADC;
   991     0EE9  0843               	movf	_ADC^(0+128),w
   992     0EEA  1283               	bcf	3,5	;RP0=0, select bank0
   993     0EEB  1303               	bcf	3,6	;RP1=0, select bank0
   994     0EEC  00EE               	movwf	??_main
   995     0EED  01EF               	clrf	??_main+1
   996     0EEE  1003               	clrc
   997     0EEF  0DEE               	rlf	??_main,f
   998     0EF0  0DEF               	rlf	??_main+1,f
   999     0EF1  1003               	clrc
  1000     0EF2  0DEE               	rlf	??_main,f
  1001     0EF3  0DEF               	rlf	??_main+1,f
  1002     0EF4  086E               	movf	??_main,w
  1003     0EF5  1683               	bsf	3,5	;RP0=1, select bank1
  1004     0EF6  1303               	bcf	3,6	;RP1=0, select bank1
  1005     0EF7  00B9               	movwf	_dutycycle^(0+128)
  1006     0EF8  1283               	bcf	3,5	;RP0=0, select bank0
  1007     0EF9  1303               	bcf	3,6	;RP1=0, select bank0
  1008     0EFA  086F               	movf	??_main+1,w
  1009     0EFB  1683               	bsf	3,5	;RP0=1, select bank1
  1010     0EFC  1303               	bcf	3,6	;RP1=0, select bank1
  1011     0EFD  00BA               	movwf	(_dutycycle+1)^(0+128)
  1012     0EFE                     l2293:
  1013                           
  1014                           ;main.c: 121:             if (dutycycle != dutyCycleApply){
  1015     0EFE  0838               	movf	(_dutyCycleApply+1)^(0+128),w
  1016     0EFF  063A               	xorwf	(_dutycycle+1)^(0+128),w
  1017     0F00  1D03               	skipz
  1018     0F01  2F04               	goto	u3415
  1019     0F02  0837               	movf	_dutyCycleApply^(0+128),w
  1020     0F03  0639               	xorwf	_dutycycle^(0+128),w
  1021     0F04                     u3415:
  1022     0F04  1903               	skipnz
  1023     0F05  2F07               	goto	u3411
  1024     0F06  2F08               	goto	u3410
  1025     0F07                     u3411:
  1026     0F07  2ED4               	goto	l2285
  1027     0F08                     u3410:
  1028     0F08                     l2295:
  1029                           
  1030                           ;main.c: 122:                 applyPWMDutyCycle(dutycycle,pwmFreq);
  1031     0F08  083A               	movf	(_dutycycle+1)^(0+128),w
  1032     0F09  00B2               	movwf	(applyPWMDutyCycle@dutyCycle+1)^(0+128)
  1033     0F0A  0839               	movf	_dutycycle^(0+128),w
  1034     0F0B  00B1               	movwf	applyPWMDutyCycle@dutyCycle^(0+128)
  1035     0F0C  3000               	movlw	0
  1036     0F0D  00B6               	movwf	(applyPWMDutyCycle@freq+3)^(0+128)
  1037     0F0E  3000               	movlw	0
  1038     0F0F  00B5               	movwf	(applyPWMDutyCycle@freq+2)^(0+128)
  1039     0F10  3013               	movlw	19
  1040     0F11  00B4               	movwf	(applyPWMDutyCycle@freq+1)^(0+128)
  1041     0F12  3088               	movlw	136
  1042     0F13  00B3               	movwf	applyPWMDutyCycle@freq^(0+128)
  1043     0F14  120A  118A  2701  120A  158A  	fcall	_applyPWMDutyCycle
  1044     0F19                     l2297:
  1045                           
  1046                           ;main.c: 123:                 dutyCycleApply = dutycycle;
  1047     0F19  1683               	bsf	3,5	;RP0=1, select bank1
  1048     0F1A  1303               	bcf	3,6	;RP1=0, select bank1
  1049     0F1B  083A               	movf	(_dutycycle+1)^(0+128),w
  1050     0F1C  00B8               	movwf	(_dutyCycleApply+1)^(0+128)
  1051     0F1D  0839               	movf	_dutycycle^(0+128),w
  1052     0F1E  00B7               	movwf	_dutyCycleApply^(0+128)
  1053     0F1F  2ED4               	goto	l2285
  1054     0F20                     l2299:
  1055     0F20  0842               	movf	_z^(0+128),w
  1056     0F21  1D03               	btfss	3,2
  1057     0F22  2F24               	goto	u3421
  1058     0F23  2F25               	goto	u3420
  1059     0F24                     u3421:
  1060     0F24  2ED4               	goto	l2285
  1061     0F25                     u3420:
  1062     0F25                     l2301:
  1063                           
  1064                           ;main.c: 127:             dutycycle = 0;
  1065     0F25  01B9               	clrf	_dutycycle^(0+128)
  1066     0F26  01BA               	clrf	(_dutycycle+1)^(0+128)
  1067     0F27                     l2303:
  1068                           
  1069                           ;main.c: 128:             if (dutycycle != dutyCycleApply){
  1070     0F27  0837               	movf	_dutyCycleApply^(0+128),w
  1071     0F28  0438               	iorwf	(_dutyCycleApply+1)^(0+128),w
  1072     0F29  1903               	btfsc	3,2
  1073     0F2A  2F2C               	goto	u3431
  1074     0F2B  2F2D               	goto	u3430
  1075     0F2C                     u3431:
  1076     0F2C  2F42               	goto	l108
  1077     0F2D                     u3430:
  1078     0F2D                     l2305:
  1079                           
  1080                           ;main.c: 129:                 applyPWMDutyCycle(dutycycle,pwmFreq);
  1081     0F2D  3000               	movlw	0
  1082     0F2E  00B1               	movwf	applyPWMDutyCycle@dutyCycle^(0+128)
  1083     0F2F  00B2               	movwf	(applyPWMDutyCycle@dutyCycle+1)^(0+128)
  1084     0F30  3000               	movlw	0
  1085     0F31  00B6               	movwf	(applyPWMDutyCycle@freq+3)^(0+128)
  1086     0F32  3000               	movlw	0
  1087     0F33  00B5               	movwf	(applyPWMDutyCycle@freq+2)^(0+128)
  1088     0F34  3013               	movlw	19
  1089     0F35  00B4               	movwf	(applyPWMDutyCycle@freq+1)^(0+128)
  1090     0F36  3088               	movlw	136
  1091     0F37  00B3               	movwf	applyPWMDutyCycle@freq^(0+128)
  1092     0F38  120A  118A  2701  120A  158A  	fcall	_applyPWMDutyCycle
  1093     0F3D                     l2307:
  1094                           
  1095                           ;main.c: 130:                 dutyCycleApply = dutycycle;
  1096     0F3D  1683               	bsf	3,5	;RP0=1, select bank1
  1097     0F3E  1303               	bcf	3,6	;RP1=0, select bank1
  1098     0F3F  01B7               	clrf	_dutyCycleApply^(0+128)
  1099     0F40  01B8               	clrf	(_dutyCycleApply+1)^(0+128)
  1100     0F41  2ED4               	goto	l2285
  1101     0F42                     l108:
  1102     0F42  2ED4               	goto	l2285
  1103     0F43  120A  118A  280C   	ljmp	start
  1104     0F46                     __end_of_main:
  1105                           
  1106                           	psect	text1
  1107     0BA9                     __ptext1:	
  1108 ;; *************** function _setupPWM *****************
  1109 ;; Defined at:
  1110 ;;		line 157 in file "main.c"
  1111 ;; Parameters:    Size  Location     Type
  1112 ;;		None
  1113 ;; Auto vars:     Size  Location     Type
  1114 ;;		None
  1115 ;; Return value:  Size  Location     Type
  1116 ;;                  1    wreg      void 
  1117 ;; Registers used:
  1118 ;;		wreg, status,2, status,0
  1119 ;; Tracked objects:
  1120 ;;		On entry : 0/0
  1121 ;;		On exit  : 0/0
  1122 ;;		Unchanged: 0/0
  1123 ;; Data sizes:     COMMON   BANK0   BANK1   BANK3   BANK2
  1124 ;;      Params:         0       0       0       0       0
  1125 ;;      Locals:         0       0       0       0       0
  1126 ;;      Temps:          0       0       0       0       0
  1127 ;;      Totals:         0       0       0       0       0
  1128 ;;Total ram usage:        0 bytes
  1129 ;; Hardware stack levels used: 1
  1130 ;; Hardware stack levels required when called: 1
  1131 ;; This function calls:
  1132 ;;		Nothing
  1133 ;; This function is called by:
  1134 ;;		_main
  1135 ;; This function uses a non-reentrant model
  1136 ;;
  1137                           
  1138     0BA9                     _setupPWM:	
  1139                           ;psect for function _setupPWM
  1140                           
  1141     0BA9                     l1897:	
  1142                           ;incstack = 0
  1143                           ; Regs used in _setupPWM: [wreg+status,2+status,0]
  1144                           
  1145                           
  1146                           ;main.c: 159:     TRISCbits.TRISC2 = 1;
  1147     0BA9  1683               	bsf	3,5	;RP0=1, select bank1
  1148     0BAA  1303               	bcf	3,6	;RP1=0, select bank1
  1149     0BAB  1507               	bsf	7,2	;volatile
  1150     0BAC                     l1899:
  1151                           
  1152                           ;main.c: 163:     CCP1CON = 0b00001100;
  1153     0BAC  300C               	movlw	12
  1154     0BAD  1283               	bcf	3,5	;RP0=0, select bank0
  1155     0BAE  1303               	bcf	3,6	;RP1=0, select bank0
  1156     0BAF  0097               	movwf	23	;volatile
  1157     0BB0                     l1901:
  1158                           
  1159                           ;main.c: 168:     TMR2IF = 0;
  1160     0BB0  108C               	bcf	12,1	;volatile
  1161     0BB1                     l1903:
  1162                           
  1163                           ;main.c: 169:     T2CONbits.T2CKPS = 0b01;
  1164     0BB1  0812               	movf	18,w	;volatile
  1165     0BB2  39FC               	andlw	-4
  1166     0BB3  3801               	iorlw	1
  1167     0BB4  0092               	movwf	18	;volatile
  1168     0BB5                     l1905:
  1169                           
  1170                           ;main.c: 170:     TMR2ON = 1;
  1171     0BB5  1512               	bsf	18,2	;volatile
  1172     0BB6                     l119:	
  1173                           ;main.c: 172:     while(!TMR2IF);
  1174                           
  1175     0BB6  1C8C               	btfss	12,1	;volatile
  1176     0BB7  2BB9               	goto	u2501
  1177     0BB8  2BBA               	goto	u2500
  1178     0BB9                     u2501:
  1179     0BB9  2BB6               	goto	l119
  1180     0BBA                     u2500:
  1181     0BBA                     l121:
  1182                           
  1183                           ;main.c: 173:     TRISCbits.TRISC2 = 0;
  1184     0BBA  1683               	bsf	3,5	;RP0=1, select bank1
  1185     0BBB  1303               	bcf	3,6	;RP1=0, select bank1
  1186     0BBC  1107               	bcf	7,2	;volatile
  1187     0BBD                     l122:
  1188     0BBD  0008               	return
  1189     0BBE                     __end_of_setupPWM:
  1190                           
  1191                           	psect	text2
  1192     0CC6                     __ptext2:	
  1193 ;; *************** function _setupINTOSC *****************
  1194 ;; Defined at:
  1195 ;;		line 10 in file "oscilador.c"
  1196 ;; Parameters:    Size  Location     Type
  1197 ;;  IRCF            1    wreg     unsigned char 
  1198 ;; Auto vars:     Size  Location     Type
  1199 ;;  IRCF            1    3[COMMON] unsigned char 
  1200 ;; Return value:  Size  Location     Type
  1201 ;;                  1    wreg      void 
  1202 ;; Registers used:
  1203 ;;		wreg, status,2, status,0
  1204 ;; Tracked objects:
  1205 ;;		On entry : 0/0
  1206 ;;		On exit  : 0/0
  1207 ;;		Unchanged: 0/0
  1208 ;; Data sizes:     COMMON   BANK0   BANK1   BANK3   BANK2
  1209 ;;      Params:         0       0       0       0       0
  1210 ;;      Locals:         1       0       0       0       0
  1211 ;;      Temps:          0       0       0       0       0
  1212 ;;      Totals:         1       0       0       0       0
  1213 ;;Total ram usage:        1 bytes
  1214 ;; Hardware stack levels used: 1
  1215 ;; Hardware stack levels required when called: 1
  1216 ;; This function calls:
  1217 ;;		Nothing
  1218 ;; This function is called by:
  1219 ;;		_main
  1220 ;; This function uses a non-reentrant model
  1221 ;;
  1222                           
  1223     0CC6                     _setupINTOSC:	
  1224                           ;psect for function _setupINTOSC
  1225                           
  1226                           
  1227                           ;incstack = 0
  1228                           ; Regs used in _setupINTOSC: [wreg+status,2+status,0]
  1229                           ;setupINTOSC@IRCF stored from wreg
  1230     0CC6  00F3               	movwf	setupINTOSC@IRCF
  1231     0CC7                     l1871:
  1232                           
  1233                           ;oscilador.c: 11:     if (IRCF == 7){
  1234     0CC7  3007               	movlw	7
  1235     0CC8  0673               	xorwf	setupINTOSC@IRCF,w
  1236     0CC9  1D03               	btfss	3,2
  1237     0CCA  2CCC               	goto	u2421
  1238     0CCB  2CCD               	goto	u2420
  1239     0CCC                     u2421:
  1240     0CCC  2CD1               	goto	l192
  1241     0CCD                     u2420:
  1242     0CCD                     l1873:
  1243                           
  1244                           ;oscilador.c: 12:         OSCCONbits.IRCF = 0b111;
  1245     0CCD  3070               	movlw	112
  1246     0CCE  1683               	bsf	3,5	;RP0=1, select bank1
  1247     0CCF  1303               	bcf	3,6	;RP1=0, select bank1
  1248     0CD0  048F               	iorwf	15,f	;volatile
  1249     0CD1                     l192:	
  1250                           ;oscilador.c: 13:     }
  1251                           
  1252                           
  1253                           ;oscilador.c: 14:     if (IRCF == 6){
  1254     0CD1  3006               	movlw	6
  1255     0CD2  0673               	xorwf	setupINTOSC@IRCF,w
  1256     0CD3  1D03               	btfss	3,2
  1257     0CD4  2CD6               	goto	u2431
  1258     0CD5  2CD7               	goto	u2430
  1259     0CD6                     u2431:
  1260     0CD6  2CDD               	goto	l193
  1261     0CD7                     u2430:
  1262     0CD7                     l1875:
  1263                           
  1264                           ;oscilador.c: 15:         OSCCONbits.IRCF = 0b110;
  1265     0CD7  1683               	bsf	3,5	;RP0=1, select bank1
  1266     0CD8  1303               	bcf	3,6	;RP1=0, select bank1
  1267     0CD9  080F               	movf	15,w	;volatile
  1268     0CDA  398F               	andlw	-113
  1269     0CDB  3860               	iorlw	96
  1270     0CDC  008F               	movwf	15	;volatile
  1271     0CDD                     l193:	
  1272                           ;oscilador.c: 16:     }
  1273                           
  1274                           
  1275                           ;oscilador.c: 17:     if (IRCF == 5){
  1276     0CDD  3005               	movlw	5
  1277     0CDE  0673               	xorwf	setupINTOSC@IRCF,w
  1278     0CDF  1D03               	btfss	3,2
  1279     0CE0  2CE2               	goto	u2441
  1280     0CE1  2CE3               	goto	u2440
  1281     0CE2                     u2441:
  1282     0CE2  2CE9               	goto	l194
  1283     0CE3                     u2440:
  1284     0CE3                     l1877:
  1285                           
  1286                           ;oscilador.c: 18:         OSCCONbits.IRCF = 0b101;
  1287     0CE3  1683               	bsf	3,5	;RP0=1, select bank1
  1288     0CE4  1303               	bcf	3,6	;RP1=0, select bank1
  1289     0CE5  080F               	movf	15,w	;volatile
  1290     0CE6  398F               	andlw	-113
  1291     0CE7  3850               	iorlw	80
  1292     0CE8  008F               	movwf	15	;volatile
  1293     0CE9                     l194:	
  1294                           ;oscilador.c: 19:     }
  1295                           
  1296                           
  1297                           ;oscilador.c: 20:     if (IRCF == 4){
  1298     0CE9  3004               	movlw	4
  1299     0CEA  0673               	xorwf	setupINTOSC@IRCF,w
  1300     0CEB  1D03               	btfss	3,2
  1301     0CEC  2CEE               	goto	u2451
  1302     0CED  2CEF               	goto	u2450
  1303     0CEE                     u2451:
  1304     0CEE  2CF5               	goto	l195
  1305     0CEF                     u2450:
  1306     0CEF                     l1879:
  1307                           
  1308                           ;oscilador.c: 21:         OSCCONbits.IRCF = 0b100;
  1309     0CEF  1683               	bsf	3,5	;RP0=1, select bank1
  1310     0CF0  1303               	bcf	3,6	;RP1=0, select bank1
  1311     0CF1  080F               	movf	15,w	;volatile
  1312     0CF2  398F               	andlw	-113
  1313     0CF3  3840               	iorlw	64
  1314     0CF4  008F               	movwf	15	;volatile
  1315     0CF5                     l195:	
  1316                           ;oscilador.c: 22:     }
  1317                           
  1318                           
  1319                           ;oscilador.c: 23:     if (IRCF == 3){
  1320     0CF5  3003               	movlw	3
  1321     0CF6  0673               	xorwf	setupINTOSC@IRCF,w
  1322     0CF7  1D03               	btfss	3,2
  1323     0CF8  2CFA               	goto	u2461
  1324     0CF9  2CFB               	goto	u2460
  1325     0CFA                     u2461:
  1326     0CFA  2D01               	goto	l196
  1327     0CFB                     u2460:
  1328     0CFB                     l1881:
  1329                           
  1330                           ;oscilador.c: 24:         OSCCONbits.IRCF = 0b011;
  1331     0CFB  1683               	bsf	3,5	;RP0=1, select bank1
  1332     0CFC  1303               	bcf	3,6	;RP1=0, select bank1
  1333     0CFD  080F               	movf	15,w	;volatile
  1334     0CFE  398F               	andlw	-113
  1335     0CFF  3830               	iorlw	48
  1336     0D00  008F               	movwf	15	;volatile
  1337     0D01                     l196:	
  1338                           ;oscilador.c: 25:     }
  1339                           
  1340                           
  1341                           ;oscilador.c: 26:     if (IRCF == 2){
  1342     0D01  3002               	movlw	2
  1343     0D02  0673               	xorwf	setupINTOSC@IRCF,w
  1344     0D03  1D03               	btfss	3,2
  1345     0D04  2D06               	goto	u2471
  1346     0D05  2D07               	goto	u2470
  1347     0D06                     u2471:
  1348     0D06  2D0D               	goto	l197
  1349     0D07                     u2470:
  1350     0D07                     l1883:
  1351                           
  1352                           ;oscilador.c: 27:         OSCCONbits.IRCF = 0b010;
  1353     0D07  1683               	bsf	3,5	;RP0=1, select bank1
  1354     0D08  1303               	bcf	3,6	;RP1=0, select bank1
  1355     0D09  080F               	movf	15,w	;volatile
  1356     0D0A  398F               	andlw	-113
  1357     0D0B  3820               	iorlw	32
  1358     0D0C  008F               	movwf	15	;volatile
  1359     0D0D                     l197:	
  1360                           ;oscilador.c: 28:     }
  1361                           
  1362                           
  1363                           ;oscilador.c: 29:     if (IRCF == 1){
  1364     0D0D  0373               	decf	setupINTOSC@IRCF,w
  1365     0D0E  1D03               	btfss	3,2
  1366     0D0F  2D11               	goto	u2481
  1367     0D10  2D12               	goto	u2480
  1368     0D11                     u2481:
  1369     0D11  2D18               	goto	l198
  1370     0D12                     u2480:
  1371     0D12                     l1885:
  1372                           
  1373                           ;oscilador.c: 30:         OSCCONbits.IRCF = 0b001;
  1374     0D12  1683               	bsf	3,5	;RP0=1, select bank1
  1375     0D13  1303               	bcf	3,6	;RP1=0, select bank1
  1376     0D14  080F               	movf	15,w	;volatile
  1377     0D15  398F               	andlw	-113
  1378     0D16  3810               	iorlw	16
  1379     0D17  008F               	movwf	15	;volatile
  1380     0D18                     l198:	
  1381                           ;oscilador.c: 31:     }
  1382                           
  1383                           
  1384                           ;oscilador.c: 32:     if (IRCF == 0){
  1385     0D18  0873               	movf	setupINTOSC@IRCF,w
  1386     0D19  1D03               	btfss	3,2
  1387     0D1A  2D1C               	goto	u2491
  1388     0D1B  2D1D               	goto	u2490
  1389     0D1C                     u2491:
  1390     0D1C  2D21               	goto	l1889
  1391     0D1D                     u2490:
  1392     0D1D                     l1887:
  1393                           
  1394                           ;oscilador.c: 33:         OSCCONbits.IRCF = 0b000;
  1395     0D1D  308F               	movlw	-113
  1396     0D1E  1683               	bsf	3,5	;RP0=1, select bank1
  1397     0D1F  1303               	bcf	3,6	;RP1=0, select bank1
  1398     0D20  058F               	andwf	15,f	;volatile
  1399     0D21                     l1889:
  1400                           
  1401                           ;oscilador.c: 36:     OSCCONbits.SCS = 1;
  1402     0D21  1683               	bsf	3,5	;RP0=1, select bank1
  1403     0D22  1303               	bcf	3,6	;RP1=0, select bank1
  1404     0D23  140F               	bsf	15,0	;volatile
  1405     0D24                     l200:
  1406     0D24  0008               	return
  1407     0D25                     __end_of_setupINTOSC:
  1408                           
  1409                           	psect	text3
  1410     0B94                     __ptext3:	
  1411 ;; *************** function _setup *****************
  1412 ;; Defined at:
  1413 ;;		line 139 in file "main.c"
  1414 ;; Parameters:    Size  Location     Type
  1415 ;;		None
  1416 ;; Auto vars:     Size  Location     Type
  1417 ;;		None
  1418 ;; Return value:  Size  Location     Type
  1419 ;;                  1    wreg      void 
  1420 ;; Registers used:
  1421 ;;		wreg, status,2, status,0, pclath, cstack
  1422 ;; Tracked objects:
  1423 ;;		On entry : 0/0
  1424 ;;		On exit  : 0/0
  1425 ;;		Unchanged: 0/0
  1426 ;; Data sizes:     COMMON   BANK0   BANK1   BANK3   BANK2
  1427 ;;      Params:         0       0       0       0       0
  1428 ;;      Locals:         0       0       0       0       0
  1429 ;;      Temps:          0       0       0       0       0
  1430 ;;      Totals:         0       0       0       0       0
  1431 ;;Total ram usage:        0 bytes
  1432 ;; Hardware stack levels used: 1
  1433 ;; Hardware stack levels required when called: 2
  1434 ;; This function calls:
  1435 ;;		_I2C_Slave_Init
  1436 ;; This function is called by:
  1437 ;;		_main
  1438 ;; This function uses a non-reentrant model
  1439 ;;
  1440                           
  1441     0B94                     _setup:	
  1442                           ;psect for function _setup
  1443                           
  1444     0B94                     l1891:	
  1445                           ;incstack = 0
  1446                           ; Regs used in _setup: [wreg+status,2+status,0+pclath+cstack]
  1447                           
  1448                           
  1449                           ;main.c: 140:     ANSEL = 0;
  1450     0B94  1683               	bsf	3,5	;RP0=1, select bank3
  1451     0B95  1703               	bsf	3,6	;RP1=1, select bank3
  1452     0B96  0188               	clrf	8	;volatile
  1453                           
  1454                           ;main.c: 141:     ANSELH = 0;
  1455     0B97  0189               	clrf	9	;volatile
  1456                           
  1457                           ;main.c: 144:     TRISB = 0b00000000;
  1458     0B98  1683               	bsf	3,5	;RP0=1, select bank1
  1459     0B99  1303               	bcf	3,6	;RP1=0, select bank1
  1460     0B9A  0186               	clrf	6	;volatile
  1461                           
  1462                           ;main.c: 145:     TRISD = 0;
  1463     0B9B  0188               	clrf	8	;volatile
  1464                           
  1465                           ;main.c: 147:     PORTB = 0;
  1466     0B9C  1283               	bcf	3,5	;RP0=0, select bank0
  1467     0B9D  1303               	bcf	3,6	;RP1=0, select bank0
  1468     0B9E  0186               	clrf	6	;volatile
  1469                           
  1470                           ;main.c: 148:     PORTC = 0;
  1471     0B9F  0187               	clrf	7	;volatile
  1472                           
  1473                           ;main.c: 149:     PORTD = 0;
  1474     0BA0  0188               	clrf	8	;volatile
  1475     0BA1                     l1893:
  1476                           
  1477                           ;main.c: 152:     INTCONbits.GIE = 1;
  1478     0BA1  178B               	bsf	11,7	;volatile
  1479     0BA2                     l1895:
  1480                           
  1481                           ;main.c: 154:     I2C_Slave_Init(0x50);
  1482     0BA2  3050               	movlw	80
  1483     0BA3  120A  158A  23BE  120A  158A  	fcall	_I2C_Slave_Init
  1484     0BA8                     l116:
  1485     0BA8  0008               	return
  1486     0BA9                     __end_of_setup:
  1487                           
  1488                           	psect	text4
  1489     0BBE                     __ptext4:	
  1490 ;; *************** function _I2C_Slave_Init *****************
  1491 ;; Defined at:
  1492 ;;		line 93 in file "I2C.c"
  1493 ;; Parameters:    Size  Location     Type
  1494 ;;  address         1    wreg     unsigned char 
  1495 ;; Auto vars:     Size  Location     Type
  1496 ;;  address         1    3[COMMON] unsigned char 
  1497 ;; Return value:  Size  Location     Type
  1498 ;;                  1    wreg      void 
  1499 ;; Registers used:
  1500 ;;		wreg
  1501 ;; Tracked objects:
  1502 ;;		On entry : 0/0
  1503 ;;		On exit  : 0/0
  1504 ;;		Unchanged: 0/0
  1505 ;; Data sizes:     COMMON   BANK0   BANK1   BANK3   BANK2
  1506 ;;      Params:         0       0       0       0       0
  1507 ;;      Locals:         1       0       0       0       0
  1508 ;;      Temps:          0       0       0       0       0
  1509 ;;      Totals:         1       0       0       0       0
  1510 ;;Total ram usage:        1 bytes
  1511 ;; Hardware stack levels used: 1
  1512 ;; Hardware stack levels required when called: 1
  1513 ;; This function calls:
  1514 ;;		Nothing
  1515 ;; This function is called by:
  1516 ;;		_setup
  1517 ;; This function uses a non-reentrant model
  1518 ;;
  1519                           
  1520     0BBE                     _I2C_Slave_Init:	
  1521                           ;psect for function _I2C_Slave_Init
  1522                           
  1523                           
  1524                           ;incstack = 0
  1525                           ; Regs used in _I2C_Slave_Init: [wreg]
  1526                           ;I2C_Slave_Init@address stored from wreg
  1527     0BBE  00F3               	movwf	I2C_Slave_Init@address
  1528     0BBF                     l1491:
  1529                           
  1530                           ;I2C.c: 93: void I2C_Slave_Init(uint8_t address);I2C.c: 94: {;I2C.c: 95:     SSPADD = ad
      +                          dress;
  1531     0BBF  0873               	movf	I2C_Slave_Init@address,w
  1532     0BC0  1683               	bsf	3,5	;RP0=1, select bank1
  1533     0BC1  1303               	bcf	3,6	;RP1=0, select bank1
  1534     0BC2  0093               	movwf	19	;volatile
  1535                           
  1536                           ;I2C.c: 96:     SSPCON = 0x36;
  1537     0BC3  3036               	movlw	54
  1538     0BC4  1283               	bcf	3,5	;RP0=0, select bank0
  1539     0BC5  1303               	bcf	3,6	;RP1=0, select bank0
  1540     0BC6  0094               	movwf	20	;volatile
  1541                           
  1542                           ;I2C.c: 97:     SSPSTAT = 0x80;
  1543     0BC7  3080               	movlw	128
  1544     0BC8  1683               	bsf	3,5	;RP0=1, select bank1
  1545     0BC9  1303               	bcf	3,6	;RP1=0, select bank1
  1546     0BCA  0094               	movwf	20	;volatile
  1547                           
  1548                           ;I2C.c: 98:     SSPCON2 = 0x01;
  1549     0BCB  3001               	movlw	1
  1550     0BCC  0091               	movwf	17	;volatile
  1551     0BCD                     l1493:
  1552                           
  1553                           ;I2C.c: 99:     TRISC3 = 1;
  1554     0BCD  1587               	bsf	7,3	;volatile
  1555     0BCE                     l1495:
  1556                           
  1557                           ;I2C.c: 100:     TRISC4 = 1;
  1558     0BCE  1607               	bsf	7,4	;volatile
  1559     0BCF                     l1497:
  1560                           
  1561                           ;I2C.c: 101:     GIE = 1;
  1562     0BCF  178B               	bsf	11,7	;volatile
  1563     0BD0                     l1499:
  1564                           
  1565                           ;I2C.c: 102:     PEIE = 1;
  1566     0BD0  170B               	bsf	11,6	;volatile
  1567     0BD1                     l1501:
  1568                           
  1569                           ;I2C.c: 103:     SSPIF = 0;
  1570     0BD1  1283               	bcf	3,5	;RP0=0, select bank0
  1571     0BD2  1303               	bcf	3,6	;RP1=0, select bank0
  1572     0BD3  118C               	bcf	12,3	;volatile
  1573     0BD4                     l1503:
  1574                           
  1575                           ;I2C.c: 104:     SSPIE = 1;
  1576     0BD4  1683               	bsf	3,5	;RP0=1, select bank1
  1577     0BD5  1303               	bcf	3,6	;RP1=0, select bank1
  1578     0BD6  158C               	bsf	12,3	;volatile
  1579     0BD7                     l187:
  1580     0BD7  0008               	return
  1581     0BD8                     __end_of_I2C_Slave_Init:
  1582                           
  1583                           	psect	text5
  1584     0C3A                     __ptext5:	
  1585 ;; *************** function _initPwm *****************
  1586 ;; Defined at:
  1587 ;;		line 181 in file "main.c"
  1588 ;; Parameters:    Size  Location     Type
  1589 ;;  freq            4   13[BANK0 ] const unsigned long 
  1590 ;; Auto vars:     Size  Location     Type
  1591 ;;		None
  1592 ;; Return value:  Size  Location     Type
  1593 ;;                  1    wreg      void 
  1594 ;; Registers used:
  1595 ;;		wreg, status,2, status,0, pclath, cstack
  1596 ;; Tracked objects:
  1597 ;;		On entry : 0/0
  1598 ;;		On exit  : 0/0
  1599 ;;		Unchanged: 0/0
  1600 ;; Data sizes:     COMMON   BANK0   BANK1   BANK3   BANK2
  1601 ;;      Params:         0       4       0       0       0
  1602 ;;      Locals:         0       0       0       0       0
  1603 ;;      Temps:          4       0       0       0       0
  1604 ;;      Totals:         4       4       0       0       0
  1605 ;;Total ram usage:        8 bytes
  1606 ;; Hardware stack levels used: 1
  1607 ;; Hardware stack levels required when called: 2
  1608 ;; This function calls:
  1609 ;;		___lldiv
  1610 ;; This function is called by:
  1611 ;;		_main
  1612 ;; This function uses a non-reentrant model
  1613 ;;
  1614                           
  1615     0C3A                     _initPwm:	
  1616                           ;psect for function _initPwm
  1617                           
  1618     0C3A                     l2263:	
  1619                           ;incstack = 0
  1620                           ; Regs used in _initPwm: [wreg+status,2+status,0+pclath+cstack]
  1621                           
  1622                           
  1623                           ;main.c: 181: void initPwm(const uint32_t freq);main.c: 182: {;main.c: 184:     PR2 = (u
      +                          int8_t)((2000000/(freq*4*4)) - 1);
  1624     0C3A  1283               	bcf	3,5	;RP0=0, select bank0
  1625     0C3B  1303               	bcf	3,6	;RP1=0, select bank0
  1626     0C3C  082D               	movf	initPwm@freq,w
  1627     0C3D  00F4               	movwf	??_initPwm
  1628     0C3E  082E               	movf	initPwm@freq+1,w
  1629     0C3F  00F5               	movwf	??_initPwm+1
  1630     0C40  082F               	movf	initPwm@freq+2,w
  1631     0C41  00F6               	movwf	??_initPwm+2
  1632     0C42  0830               	movf	initPwm@freq+3,w
  1633     0C43  00F7               	movwf	??_initPwm+3
  1634     0C44  3002               	movlw	2
  1635     0C45                     u3365:
  1636     0C45  1003               	clrc
  1637     0C46  0DF4               	rlf	??_initPwm,f
  1638     0C47  0DF5               	rlf	??_initPwm+1,f
  1639     0C48  0DF6               	rlf	??_initPwm+2,f
  1640     0C49  0DF7               	rlf	??_initPwm+3,f
  1641     0C4A                     u3360:
  1642     0C4A  3EFF               	addlw	-1
  1643     0C4B  1D03               	skipz
  1644     0C4C  2C45               	goto	u3365
  1645     0C4D  3002               	movlw	2
  1646     0C4E                     u3375:
  1647     0C4E  1003               	clrc
  1648     0C4F  0DF4               	rlf	??_initPwm,f
  1649     0C50  0DF5               	rlf	??_initPwm+1,f
  1650     0C51  0DF6               	rlf	??_initPwm+2,f
  1651     0C52  0DF7               	rlf	??_initPwm+3,f
  1652     0C53                     u3370:
  1653     0C53  3EFF               	addlw	-1
  1654     0C54  1D03               	skipz
  1655     0C55  2C4E               	goto	u3375
  1656     0C56  0877               	movf	??_initPwm+3,w
  1657     0C57  00A3               	movwf	___lldiv@divisor+3
  1658     0C58  0876               	movf	??_initPwm+2,w
  1659     0C59  00A2               	movwf	___lldiv@divisor+2
  1660     0C5A  0875               	movf	??_initPwm+1,w
  1661     0C5B  00A1               	movwf	___lldiv@divisor+1
  1662     0C5C  0874               	movf	??_initPwm,w
  1663     0C5D  00A0               	movwf	___lldiv@divisor
  1664     0C5E  3000               	movlw	0
  1665     0C5F  00A7               	movwf	___lldiv@dividend+3
  1666     0C60  301E               	movlw	30
  1667     0C61  00A6               	movwf	___lldiv@dividend+2
  1668     0C62  3084               	movlw	132
  1669     0C63  00A5               	movwf	___lldiv@dividend+1
  1670     0C64  3080               	movlw	128
  1671     0C65  00A4               	movwf	___lldiv@dividend
  1672     0C66  120A  158A  2525  120A  158A  	fcall	___lldiv
  1673     0C6B  1283               	bcf	3,5	;RP0=0, select bank0
  1674     0C6C  1303               	bcf	3,6	;RP1=0, select bank0
  1675     0C6D  0820               	movf	?___lldiv,w
  1676     0C6E  3EFF               	addlw	255
  1677     0C6F  1683               	bsf	3,5	;RP0=1, select bank1
  1678     0C70  1303               	bcf	3,6	;RP1=0, select bank1
  1679     0C71  0092               	movwf	18	;volatile
  1680     0C72                     l128:
  1681     0C72  0008               	return
  1682     0C73                     __end_of_initPwm:
  1683                           
  1684                           	psect	text6
  1685     0701                     __ptext6:	
  1686 ;; *************** function _applyPWMDutyCycle *****************
  1687 ;; Defined at:
  1688 ;;		line 188 in file "main.c"
  1689 ;; Parameters:    Size  Location     Type
  1690 ;;  dutyCycle       2   17[BANK1 ] unsigned int 
  1691 ;;  freq            4   19[BANK1 ] const unsigned long 
  1692 ;; Auto vars:     Size  Location     Type
  1693 ;;		None
  1694 ;; Return value:  Size  Location     Type
  1695 ;;                  1    wreg      void 
  1696 ;; Registers used:
  1697 ;;		wreg, status,2, status,0, btemp+1, pclath, cstack
  1698 ;; Tracked objects:
  1699 ;;		On entry : 0/0
  1700 ;;		On exit  : 0/0
  1701 ;;		Unchanged: 0/0
  1702 ;; Data sizes:     COMMON   BANK0   BANK1   BANK3   BANK2
  1703 ;;      Params:         0       0       6       0       0
  1704 ;;      Locals:         0       0       0       0       0
  1705 ;;      Temps:          0       2       0       0       0
  1706 ;;      Totals:         0       2       6       0       0
  1707 ;;Total ram usage:        8 bytes
  1708 ;; Hardware stack levels used: 1
  1709 ;; Hardware stack levels required when called: 3
  1710 ;; This function calls:
  1711 ;;		___fldiv
  1712 ;;		___flmul
  1713 ;;		___fltol
  1714 ;;		___xxtofl
  1715 ;;		_pwmMaxDuty
  1716 ;; This function is called by:
  1717 ;;		_main
  1718 ;; This function uses a non-reentrant model
  1719 ;;
  1720                           
  1721     0701                     _applyPWMDutyCycle:	
  1722                           ;psect for function _applyPWMDutyCycle
  1723                           
  1724     0701                     l2265:	
  1725                           ;incstack = 0
  1726                           ; Regs used in _applyPWMDutyCycle: [wreg+status,2+status,0+btemp+1+pclath+cstack]
  1727                           
  1728                           
  1729                           ;main.c: 188: void applyPWMDutyCycle(uint16_t dutyCycle, const uint32_t freq);main.c: 18
      +                          9: {;main.c: 190:     if(dutyCycle<1024)
  1730     0701  3004               	movlw	4
  1731     0702  1683               	bsf	3,5	;RP0=1, select bank1
  1732     0703  1303               	bcf	3,6	;RP1=0, select bank1
  1733     0704  0232               	subwf	(applyPWMDutyCycle@dutyCycle+1)^(0+128),w
  1734     0705  3000               	movlw	0
  1735     0706  1903               	skipnz
  1736     0707  0231               	subwf	applyPWMDutyCycle@dutyCycle^(0+128),w
  1737     0708  1803               	skipnc
  1738     0709  2F0B               	goto	u3381
  1739     070A  2F0C               	goto	u3380
  1740     070B                     u3381:
  1741     070B  2FCA               	goto	l132
  1742     070C                     u3380:
  1743     070C                     l2267:
  1744                           
  1745                           ;main.c: 191:     {;main.c: 193:         dutyCycle = (uint16_t)(((float)dutyCycle/1023)*
      +                          pwmMaxDuty(freq));
  1746     070C  0831               	movf	applyPWMDutyCycle@dutyCycle^(0+128),w
  1747     070D  1283               	bcf	3,5	;RP0=0, select bank0
  1748     070E  1303               	bcf	3,6	;RP1=0, select bank0
  1749     070F  00B1               	movwf	___xxtofl@val
  1750     0710  1683               	bsf	3,5	;RP0=1, select bank1
  1751     0711  1303               	bcf	3,6	;RP1=0, select bank1
  1752     0712  0832               	movf	(applyPWMDutyCycle@dutyCycle+1)^(0+128),w
  1753     0713  1283               	bcf	3,5	;RP0=0, select bank0
  1754     0714  1303               	bcf	3,6	;RP1=0, select bank0
  1755     0715  00B2               	movwf	___xxtofl@val+1
  1756     0716  01B3               	clrf	___xxtofl@val+2
  1757     0717  01B4               	clrf	___xxtofl@val+3
  1758     0718  3000               	movlw	0
  1759     0719  120A  158A  2746  120A  118A  	fcall	___xxtofl
  1760     071E  1283               	bcf	3,5	;RP0=0, select bank0
  1761     071F  1303               	bcf	3,6	;RP1=0, select bank0
  1762     0720  0834               	movf	?___xxtofl+3,w
  1763     0721  00C6               	movwf	___fldiv@b+3
  1764     0722  0833               	movf	?___xxtofl+2,w
  1765     0723  00C5               	movwf	___fldiv@b+2
  1766     0724  0832               	movf	?___xxtofl+1,w
  1767     0725  00C4               	movwf	___fldiv@b+1
  1768     0726  0831               	movf	?___xxtofl,w
  1769     0727  00C3               	movwf	___fldiv@b
  1770     0728  3044               	movlw	68
  1771     0729  00C2               	movwf	___fldiv@a+3
  1772     072A  307F               	movlw	127
  1773     072B  00C1               	movwf	___fldiv@a+2
  1774     072C  30C0               	movlw	192
  1775     072D  00C0               	movwf	___fldiv@a+1
  1776     072E  3000               	movlw	0
  1777     072F  00BF               	movwf	___fldiv@a
  1778     0730  120A  118A  252E  120A  118A  	fcall	___fldiv
  1779     0735  1283               	bcf	3,5	;RP0=0, select bank0
  1780     0736  1303               	bcf	3,6	;RP1=0, select bank0
  1781     0737  0842               	movf	?___fldiv+3,w
  1782     0738  00E0               	movwf	___flmul@a+3
  1783     0739  0841               	movf	?___fldiv+2,w
  1784     073A  00DF               	movwf	___flmul@a+2
  1785     073B  0840               	movf	?___fldiv+1,w
  1786     073C  00DE               	movwf	___flmul@a+1
  1787     073D  083F               	movf	?___fldiv,w
  1788     073E  00DD               	movwf	___flmul@a
  1789     073F  1683               	bsf	3,5	;RP0=1, select bank1
  1790     0740  1303               	bcf	3,6	;RP1=0, select bank1
  1791     0741  0836               	movf	(applyPWMDutyCycle@freq+3)^(0+128),w
  1792     0742  1283               	bcf	3,5	;RP0=0, select bank0
  1793     0743  1303               	bcf	3,6	;RP1=0, select bank0
  1794     0744  00B0               	movwf	pwmMaxDuty@freq+3
  1795     0745  1683               	bsf	3,5	;RP0=1, select bank1
  1796     0746  1303               	bcf	3,6	;RP1=0, select bank1
  1797     0747  0835               	movf	(applyPWMDutyCycle@freq+2)^(0+128),w
  1798     0748  1283               	bcf	3,5	;RP0=0, select bank0
  1799     0749  1303               	bcf	3,6	;RP1=0, select bank0
  1800     074A  00AF               	movwf	pwmMaxDuty@freq+2
  1801     074B  1683               	bsf	3,5	;RP0=1, select bank1
  1802     074C  1303               	bcf	3,6	;RP1=0, select bank1
  1803     074D  0834               	movf	(applyPWMDutyCycle@freq+1)^(0+128),w
  1804     074E  1283               	bcf	3,5	;RP0=0, select bank0
  1805     074F  1303               	bcf	3,6	;RP1=0, select bank0
  1806     0750  00AE               	movwf	pwmMaxDuty@freq+1
  1807     0751  1683               	bsf	3,5	;RP0=1, select bank1
  1808     0752  1303               	bcf	3,6	;RP1=0, select bank1
  1809     0753  0833               	movf	applyPWMDutyCycle@freq^(0+128),w
  1810     0754  1283               	bcf	3,5	;RP0=0, select bank0
  1811     0755  1303               	bcf	3,6	;RP1=0, select bank0
  1812     0756  00AD               	movwf	pwmMaxDuty@freq
  1813     0757  120A  118A  27CB  120A  118A  	fcall	_pwmMaxDuty
  1814     075C  1283               	bcf	3,5	;RP0=0, select bank0
  1815     075D  1303               	bcf	3,6	;RP1=0, select bank0
  1816     075E  0830               	movf	?_pwmMaxDuty+3,w
  1817     075F  00B4               	movwf	___xxtofl@val+3
  1818     0760  082F               	movf	?_pwmMaxDuty+2,w
  1819     0761  00B3               	movwf	___xxtofl@val+2
  1820     0762  082E               	movf	?_pwmMaxDuty+1,w
  1821     0763  00B2               	movwf	___xxtofl@val+1
  1822     0764  082D               	movf	?_pwmMaxDuty,w
  1823     0765  00B1               	movwf	___xxtofl@val
  1824     0766  3000               	movlw	0
  1825     0767  120A  158A  2746  120A  118A  	fcall	___xxtofl
  1826     076C  1283               	bcf	3,5	;RP0=0, select bank0
  1827     076D  1303               	bcf	3,6	;RP1=0, select bank0
  1828     076E  0834               	movf	?___xxtofl+3,w
  1829     076F  00DC               	movwf	___flmul@b+3
  1830     0770  0833               	movf	?___xxtofl+2,w
  1831     0771  00DB               	movwf	___flmul@b+2
  1832     0772  0832               	movf	?___xxtofl+1,w
  1833     0773  00DA               	movwf	___flmul@b+1
  1834     0774  0831               	movf	?___xxtofl,w
  1835     0775  00D9               	movwf	___flmul@b
  1836     0776  120A  118A  2025  120A  118A  	fcall	___flmul
  1837     077B  1283               	bcf	3,5	;RP0=0, select bank0
  1838     077C  1303               	bcf	3,6	;RP1=0, select bank0
  1839     077D  085C               	movf	?___flmul+3,w
  1840     077E  1683               	bsf	3,5	;RP0=1, select bank1
  1841     077F  1303               	bcf	3,6	;RP1=0, select bank1
  1842     0780  00B0               	movwf	(___fltol@f1+3)^(0+128)
  1843     0781  1283               	bcf	3,5	;RP0=0, select bank0
  1844     0782  1303               	bcf	3,6	;RP1=0, select bank0
  1845     0783  085B               	movf	?___flmul+2,w
  1846     0784  1683               	bsf	3,5	;RP0=1, select bank1
  1847     0785  1303               	bcf	3,6	;RP1=0, select bank1
  1848     0786  00AF               	movwf	(___fltol@f1+2)^(0+128)
  1849     0787  1283               	bcf	3,5	;RP0=0, select bank0
  1850     0788  1303               	bcf	3,6	;RP1=0, select bank0
  1851     0789  085A               	movf	?___flmul+1,w
  1852     078A  1683               	bsf	3,5	;RP0=1, select bank1
  1853     078B  1303               	bcf	3,6	;RP1=0, select bank1
  1854     078C  00AE               	movwf	(___fltol@f1+1)^(0+128)
  1855     078D  1283               	bcf	3,5	;RP0=0, select bank0
  1856     078E  1303               	bcf	3,6	;RP1=0, select bank0
  1857     078F  0859               	movf	?___flmul,w
  1858     0790  1683               	bsf	3,5	;RP0=1, select bank1
  1859     0791  1303               	bcf	3,6	;RP1=0, select bank1
  1860     0792  00AD               	movwf	___fltol@f1^(0+128)
  1861     0793  120A  158A  25FA  120A  118A  	fcall	___fltol
  1862     0798  1683               	bsf	3,5	;RP0=1, select bank1
  1863     0799  1303               	bcf	3,6	;RP1=0, select bank1
  1864     079A  082E               	movf	(?___fltol+1)^(0+128),w
  1865     079B  00B2               	movwf	(applyPWMDutyCycle@dutyCycle+1)^(0+128)
  1866     079C  082D               	movf	?___fltol^(0+128),w
  1867     079D  00B1               	movwf	applyPWMDutyCycle@dutyCycle^(0+128)
  1868     079E                     l2269:
  1869                           
  1870                           ;main.c: 194:         CCP1CON &= 0xCF;
  1871     079E  30CF               	movlw	207
  1872     079F  1283               	bcf	3,5	;RP0=0, select bank0
  1873     07A0  1303               	bcf	3,6	;RP1=0, select bank0
  1874     07A1  00EC               	movwf	??_applyPWMDutyCycle
  1875     07A2  086C               	movf	??_applyPWMDutyCycle,w
  1876     07A3  0597               	andwf	23,f	;volatile
  1877     07A4                     l2271:
  1878                           
  1879                           ;main.c: 195:         CCP1CON |= (0x30&(dutyCycle<<4));
  1880     07A4  1683               	bsf	3,5	;RP0=1, select bank1
  1881     07A5  1303               	bcf	3,6	;RP1=0, select bank1
  1882     07A6  0831               	movf	applyPWMDutyCycle@dutyCycle^(0+128),w	;volatile
  1883     07A7  1283               	bcf	3,5	;RP0=0, select bank0
  1884     07A8  1303               	bcf	3,6	;RP1=0, select bank0
  1885     07A9  00EC               	movwf	??_applyPWMDutyCycle
  1886     07AA  3003               	movlw	3
  1887     07AB                     u3395:
  1888     07AB  1003               	clrc
  1889     07AC  0DEC               	rlf	??_applyPWMDutyCycle,f
  1890     07AD  3EFF               	addlw	-1
  1891     07AE  1D03               	skipz
  1892     07AF  2FAB               	goto	u3395
  1893     07B0  1003               	clrc
  1894     07B1  0D6C               	rlf	??_applyPWMDutyCycle,w
  1895     07B2  3930               	andlw	48
  1896     07B3  00ED               	movwf	??_applyPWMDutyCycle+1
  1897     07B4  086D               	movf	??_applyPWMDutyCycle+1,w
  1898     07B5  0497               	iorwf	23,f	;volatile
  1899     07B6                     l2273:
  1900                           
  1901                           ;main.c: 196:         CCPR1L = (uint8_t)(dutyCycle>>2);
  1902     07B6  1683               	bsf	3,5	;RP0=1, select bank1
  1903     07B7  1303               	bcf	3,6	;RP1=0, select bank1
  1904     07B8  0832               	movf	(applyPWMDutyCycle@dutyCycle+1)^(0+128),w
  1905     07B9  1283               	bcf	3,5	;RP0=0, select bank0
  1906     07BA  1303               	bcf	3,6	;RP1=0, select bank0
  1907     07BB  00ED               	movwf	??_applyPWMDutyCycle+1
  1908     07BC  1683               	bsf	3,5	;RP0=1, select bank1
  1909     07BD  1303               	bcf	3,6	;RP1=0, select bank1
  1910     07BE  0831               	movf	applyPWMDutyCycle@dutyCycle^(0+128),w
  1911     07BF  1283               	bcf	3,5	;RP0=0, select bank0
  1912     07C0  1303               	bcf	3,6	;RP1=0, select bank0
  1913     07C1  00EC               	movwf	??_applyPWMDutyCycle
  1914     07C2  1003               	clrc
  1915     07C3  0CED               	rrf	??_applyPWMDutyCycle+1,f
  1916     07C4  0CEC               	rrf	??_applyPWMDutyCycle,f
  1917     07C5  1003               	clrc
  1918     07C6  0CED               	rrf	??_applyPWMDutyCycle+1,f
  1919     07C7  0CEC               	rrf	??_applyPWMDutyCycle,f
  1920     07C8  086C               	movf	??_applyPWMDutyCycle,w
  1921     07C9  0095               	movwf	21	;volatile
  1922     07CA                     l132:
  1923     07CA  0008               	return
  1924     07CB                     __end_of_applyPWMDutyCycle:
  1925                           
  1926                           	psect	text7
  1927     07CB                     __ptext7:	
  1928 ;; *************** function _pwmMaxDuty *****************
  1929 ;; Defined at:
  1930 ;;		line 176 in file "main.c"
  1931 ;; Parameters:    Size  Location     Type
  1932 ;;  freq            4   13[BANK0 ] const unsigned long 
  1933 ;; Auto vars:     Size  Location     Type
  1934 ;;		None
  1935 ;; Return value:  Size  Location     Type
  1936 ;;                  4   13[BANK0 ] unsigned long 
  1937 ;; Registers used:
  1938 ;;		wreg, status,2, status,0, pclath, cstack
  1939 ;; Tracked objects:
  1940 ;;		On entry : 0/0
  1941 ;;		On exit  : 0/0
  1942 ;;		Unchanged: 0/0
  1943 ;; Data sizes:     COMMON   BANK0   BANK1   BANK3   BANK2
  1944 ;;      Params:         0       4       0       0       0
  1945 ;;      Locals:         0       0       0       0       0
  1946 ;;      Temps:          4       0       0       0       0
  1947 ;;      Totals:         4       4       0       0       0
  1948 ;;Total ram usage:        8 bytes
  1949 ;; Hardware stack levels used: 1
  1950 ;; Hardware stack levels required when called: 2
  1951 ;; This function calls:
  1952 ;;		___lldiv
  1953 ;; This function is called by:
  1954 ;;		_applyPWMDutyCycle
  1955 ;; This function uses a non-reentrant model
  1956 ;;
  1957                           
  1958     07CB                     _pwmMaxDuty:	
  1959                           ;psect for function _pwmMaxDuty
  1960                           
  1961     07CB                     l2083:	
  1962                           ;incstack = 0
  1963                           ; Regs used in _pwmMaxDuty: [wreg+status,2+status,0+pclath+cstack]
  1964                           
  1965                           
  1966                           ;main.c: 176: uint32_t pwmMaxDuty(const uint32_t freq);main.c: 177: {;main.c: 178:   ret
      +                          urn(2000000/(freq*4));
  1967     07CB  1283               	bcf	3,5	;RP0=0, select bank0
  1968     07CC  1303               	bcf	3,6	;RP1=0, select bank0
  1969     07CD  082D               	movf	pwmMaxDuty@freq,w
  1970     07CE  00F4               	movwf	??_pwmMaxDuty
  1971     07CF  082E               	movf	pwmMaxDuty@freq+1,w
  1972     07D0  00F5               	movwf	??_pwmMaxDuty+1
  1973     07D1  082F               	movf	pwmMaxDuty@freq+2,w
  1974     07D2  00F6               	movwf	??_pwmMaxDuty+2
  1975     07D3  0830               	movf	pwmMaxDuty@freq+3,w
  1976     07D4  00F7               	movwf	??_pwmMaxDuty+3
  1977     07D5  3002               	movlw	2
  1978     07D6                     u2885:
  1979     07D6  1003               	clrc
  1980     07D7  0DF4               	rlf	??_pwmMaxDuty,f
  1981     07D8  0DF5               	rlf	??_pwmMaxDuty+1,f
  1982     07D9  0DF6               	rlf	??_pwmMaxDuty+2,f
  1983     07DA  0DF7               	rlf	??_pwmMaxDuty+3,f
  1984     07DB                     u2880:
  1985     07DB  3EFF               	addlw	-1
  1986     07DC  1D03               	skipz
  1987     07DD  2FD6               	goto	u2885
  1988     07DE  0877               	movf	??_pwmMaxDuty+3,w
  1989     07DF  00A3               	movwf	___lldiv@divisor+3
  1990     07E0  0876               	movf	??_pwmMaxDuty+2,w
  1991     07E1  00A2               	movwf	___lldiv@divisor+2
  1992     07E2  0875               	movf	??_pwmMaxDuty+1,w
  1993     07E3  00A1               	movwf	___lldiv@divisor+1
  1994     07E4  0874               	movf	??_pwmMaxDuty,w
  1995     07E5  00A0               	movwf	___lldiv@divisor
  1996     07E6  3000               	movlw	0
  1997     07E7  00A7               	movwf	___lldiv@dividend+3
  1998     07E8  301E               	movlw	30
  1999     07E9  00A6               	movwf	___lldiv@dividend+2
  2000     07EA  3084               	movlw	132
  2001     07EB  00A5               	movwf	___lldiv@dividend+1
  2002     07EC  3080               	movlw	128
  2003     07ED  00A4               	movwf	___lldiv@dividend
  2004     07EE  120A  158A  2525  120A  118A  	fcall	___lldiv
  2005     07F3  1283               	bcf	3,5	;RP0=0, select bank0
  2006     07F4  1303               	bcf	3,6	;RP1=0, select bank0
  2007     07F5  0823               	movf	?___lldiv+3,w
  2008     07F6  00B0               	movwf	?_pwmMaxDuty+3
  2009     07F7  0822               	movf	?___lldiv+2,w
  2010     07F8  00AF               	movwf	?_pwmMaxDuty+2
  2011     07F9  0821               	movf	?___lldiv+1,w
  2012     07FA  00AE               	movwf	?_pwmMaxDuty+1
  2013     07FB  0820               	movf	?___lldiv,w
  2014     07FC  00AD               	movwf	?_pwmMaxDuty
  2015     07FD                     l125:
  2016     07FD  0008               	return
  2017     07FE                     __end_of_pwmMaxDuty:
  2018                           
  2019                           	psect	text8
  2020     0D25                     __ptext8:	
  2021 ;; *************** function ___lldiv *****************
  2022 ;; Defined at:
  2023 ;;		line 5 in file "C:\Program Files\Microchip\xc8\v2.40\pic\sources\c90\common\__lldiv.c"
  2024 ;; Parameters:    Size  Location     Type
  2025 ;;  divisor         4    0[BANK0 ] unsigned long 
  2026 ;;  dividend        4    4[BANK0 ] unsigned long 
  2027 ;; Auto vars:     Size  Location     Type
  2028 ;;  quotient        4    8[BANK0 ] unsigned long 
  2029 ;;  counter         1   12[BANK0 ] unsigned char 
  2030 ;; Return value:  Size  Location     Type
  2031 ;;                  4    0[BANK0 ] unsigned long 
  2032 ;; Registers used:
  2033 ;;		wreg, status,2, status,0
  2034 ;; Tracked objects:
  2035 ;;		On entry : 0/0
  2036 ;;		On exit  : 0/0
  2037 ;;		Unchanged: 0/0
  2038 ;; Data sizes:     COMMON   BANK0   BANK1   BANK3   BANK2
  2039 ;;      Params:         0       8       0       0       0
  2040 ;;      Locals:         0       5       0       0       0
  2041 ;;      Temps:          1       0       0       0       0
  2042 ;;      Totals:         1      13       0       0       0
  2043 ;;Total ram usage:       14 bytes
  2044 ;; Hardware stack levels used: 1
  2045 ;; Hardware stack levels required when called: 1
  2046 ;; This function calls:
  2047 ;;		Nothing
  2048 ;; This function is called by:
  2049 ;;		_pwmMaxDuty
  2050 ;;		_initPwm
  2051 ;;		_I2C_Master_Init
  2052 ;; This function uses a non-reentrant model
  2053 ;;
  2054                           
  2055     0D25                     ___lldiv:	
  2056                           ;psect for function ___lldiv
  2057                           
  2058     0D25                     l2045:	
  2059                           ;incstack = 0
  2060                           ; Regs used in ___lldiv: [wreg+status,2+status,0]
  2061                           
  2062     0D25  3000               	movlw	0
  2063     0D26  1283               	bcf	3,5	;RP0=0, select bank0
  2064     0D27  1303               	bcf	3,6	;RP1=0, select bank0
  2065     0D28  00AB               	movwf	___lldiv@quotient+3
  2066     0D29  3000               	movlw	0
  2067     0D2A  00AA               	movwf	___lldiv@quotient+2
  2068     0D2B  3000               	movlw	0
  2069     0D2C  00A9               	movwf	___lldiv@quotient+1
  2070     0D2D  3000               	movlw	0
  2071     0D2E  00A8               	movwf	___lldiv@quotient
  2072     0D2F  0823               	movf	___lldiv@divisor+3,w
  2073     0D30  0422               	iorwf	___lldiv@divisor+2,w
  2074     0D31  0421               	iorwf	___lldiv@divisor+1,w
  2075     0D32  0420               	iorwf	___lldiv@divisor,w
  2076     0D33  1903               	skipnz
  2077     0D34  2D36               	goto	u2781
  2078     0D35  2D37               	goto	u2780
  2079     0D36                     u2781:
  2080     0D36  2D84               	goto	l2065
  2081     0D37                     u2780:
  2082     0D37                     l2047:
  2083     0D37  01AC               	clrf	___lldiv@counter
  2084     0D38  0AAC               	incf	___lldiv@counter,f
  2085     0D39  2D47               	goto	l2051
  2086     0D3A                     l2049:
  2087     0D3A  3001               	movlw	1
  2088     0D3B  00F3               	movwf	??___lldiv
  2089     0D3C                     u2795:
  2090     0D3C  1003               	clrc
  2091     0D3D  0DA0               	rlf	___lldiv@divisor,f
  2092     0D3E  0DA1               	rlf	___lldiv@divisor+1,f
  2093     0D3F  0DA2               	rlf	___lldiv@divisor+2,f
  2094     0D40  0DA3               	rlf	___lldiv@divisor+3,f
  2095     0D41  0BF3               	decfsz	??___lldiv,f
  2096     0D42  2D3C               	goto	u2795
  2097     0D43  3001               	movlw	1
  2098     0D44  00F3               	movwf	??___lldiv
  2099     0D45  0873               	movf	??___lldiv,w
  2100     0D46  07AC               	addwf	___lldiv@counter,f
  2101     0D47                     l2051:
  2102     0D47  1FA3               	btfss	___lldiv@divisor+3,7
  2103     0D48  2D4A               	goto	u2801
  2104     0D49  2D4B               	goto	u2800
  2105     0D4A                     u2801:
  2106     0D4A  2D3A               	goto	l2049
  2107     0D4B                     u2800:
  2108     0D4B                     l2053:
  2109     0D4B  3001               	movlw	1
  2110     0D4C  00F3               	movwf	??___lldiv
  2111     0D4D                     u2815:
  2112     0D4D  1003               	clrc
  2113     0D4E  0DA8               	rlf	___lldiv@quotient,f
  2114     0D4F  0DA9               	rlf	___lldiv@quotient+1,f
  2115     0D50  0DAA               	rlf	___lldiv@quotient+2,f
  2116     0D51  0DAB               	rlf	___lldiv@quotient+3,f
  2117     0D52  0BF3               	decfsz	??___lldiv,f
  2118     0D53  2D4D               	goto	u2815
  2119     0D54                     l2055:
  2120     0D54  0823               	movf	___lldiv@divisor+3,w
  2121     0D55  0227               	subwf	___lldiv@dividend+3,w
  2122     0D56  1D03               	skipz
  2123     0D57  2D62               	goto	u2825
  2124     0D58  0822               	movf	___lldiv@divisor+2,w
  2125     0D59  0226               	subwf	___lldiv@dividend+2,w
  2126     0D5A  1D03               	skipz
  2127     0D5B  2D62               	goto	u2825
  2128     0D5C  0821               	movf	___lldiv@divisor+1,w
  2129     0D5D  0225               	subwf	___lldiv@dividend+1,w
  2130     0D5E  1D03               	skipz
  2131     0D5F  2D62               	goto	u2825
  2132     0D60  0820               	movf	___lldiv@divisor,w
  2133     0D61  0224               	subwf	___lldiv@dividend,w
  2134     0D62                     u2825:
  2135     0D62  1C03               	skipc
  2136     0D63  2D65               	goto	u2821
  2137     0D64  2D66               	goto	u2820
  2138     0D65                     u2821:
  2139     0D65  2D75               	goto	l2061
  2140     0D66                     u2820:
  2141     0D66                     l2057:
  2142     0D66  0820               	movf	___lldiv@divisor,w
  2143     0D67  02A4               	subwf	___lldiv@dividend,f
  2144     0D68  0821               	movf	___lldiv@divisor+1,w
  2145     0D69  1C03               	skipc
  2146     0D6A  0F21               	incfsz	___lldiv@divisor+1,w
  2147     0D6B  02A5               	subwf	___lldiv@dividend+1,f
  2148     0D6C  0822               	movf	___lldiv@divisor+2,w
  2149     0D6D  1C03               	skipc
  2150     0D6E  0F22               	incfsz	___lldiv@divisor+2,w
  2151     0D6F  02A6               	subwf	___lldiv@dividend+2,f
  2152     0D70  0823               	movf	___lldiv@divisor+3,w
  2153     0D71  1C03               	skipc
  2154     0D72  0F23               	incfsz	___lldiv@divisor+3,w
  2155     0D73  02A7               	subwf	___lldiv@dividend+3,f
  2156     0D74                     l2059:
  2157     0D74  1428               	bsf	___lldiv@quotient,0
  2158     0D75                     l2061:
  2159     0D75  3001               	movlw	1
  2160     0D76                     u2835:
  2161     0D76  1003               	clrc
  2162     0D77  0CA3               	rrf	___lldiv@divisor+3,f
  2163     0D78  0CA2               	rrf	___lldiv@divisor+2,f
  2164     0D79  0CA1               	rrf	___lldiv@divisor+1,f
  2165     0D7A  0CA0               	rrf	___lldiv@divisor,f
  2166     0D7B  3EFF               	addlw	-1
  2167     0D7C  1D03               	skipz
  2168     0D7D  2D76               	goto	u2835
  2169     0D7E                     l2063:
  2170     0D7E  3001               	movlw	1
  2171     0D7F  02AC               	subwf	___lldiv@counter,f
  2172     0D80  1D03               	btfss	3,2
  2173     0D81  2D83               	goto	u2841
  2174     0D82  2D84               	goto	u2840
  2175     0D83                     u2841:
  2176     0D83  2D4B               	goto	l2053
  2177     0D84                     u2840:
  2178     0D84                     l2065:
  2179     0D84  082B               	movf	___lldiv@quotient+3,w
  2180     0D85  00A3               	movwf	?___lldiv+3
  2181     0D86  082A               	movf	___lldiv@quotient+2,w
  2182     0D87  00A2               	movwf	?___lldiv+2
  2183     0D88  0829               	movf	___lldiv@quotient+1,w
  2184     0D89  00A1               	movwf	?___lldiv+1
  2185     0D8A  0828               	movf	___lldiv@quotient,w
  2186     0D8B  00A0               	movwf	?___lldiv
  2187     0D8C                     l359:
  2188     0D8C  0008               	return
  2189     0D8D                     __end_of___lldiv:
  2190                           
  2191                           	psect	text9
  2192     0F46                     __ptext9:	
  2193 ;; *************** function ___xxtofl *****************
  2194 ;; Defined at:
  2195 ;;		line 10 in file "C:\Program Files\Microchip\xc8\v2.40\pic\sources\c90\common\xxtofl.c"
  2196 ;; Parameters:    Size  Location     Type
  2197 ;;  sign            1    wreg     unsigned char 
  2198 ;;  val             4   17[BANK0 ] long 
  2199 ;; Auto vars:     Size  Location     Type
  2200 ;;  sign            1   25[BANK0 ] unsigned char 
  2201 ;;  arg             4   27[BANK0 ] unsigned long 
  2202 ;;  exp             1   26[BANK0 ] unsigned char 
  2203 ;; Return value:  Size  Location     Type
  2204 ;;                  4   17[BANK0 ] unsigned char 
  2205 ;; Registers used:
  2206 ;;		wreg, status,2, status,0
  2207 ;; Tracked objects:
  2208 ;;		On entry : 0/0
  2209 ;;		On exit  : 0/0
  2210 ;;		Unchanged: 0/0
  2211 ;; Data sizes:     COMMON   BANK0   BANK1   BANK3   BANK2
  2212 ;;      Params:         0       4       0       0       0
  2213 ;;      Locals:         0       6       0       0       0
  2214 ;;      Temps:          0       4       0       0       0
  2215 ;;      Totals:         0      14       0       0       0
  2216 ;;Total ram usage:       14 bytes
  2217 ;; Hardware stack levels used: 1
  2218 ;; Hardware stack levels required when called: 1
  2219 ;; This function calls:
  2220 ;;		Nothing
  2221 ;; This function is called by:
  2222 ;;		_applyPWMDutyCycle
  2223 ;; This function uses a non-reentrant model
  2224 ;;
  2225                           
  2226     0F46                     ___xxtofl:	
  2227                           ;psect for function ___xxtofl
  2228                           
  2229                           
  2230                           ;incstack = 0
  2231                           ; Regs used in ___xxtofl: [wreg+status,2+status,0]
  2232                           ;___xxtofl@sign stored from wreg
  2233     0F46  1283               	bcf	3,5	;RP0=0, select bank0
  2234     0F47  1303               	bcf	3,6	;RP1=0, select bank0
  2235     0F48  00B9               	movwf	___xxtofl@sign
  2236     0F49                     l1827:
  2237     0F49  0839               	movf	___xxtofl@sign,w
  2238     0F4A  1903               	btfsc	3,2
  2239     0F4B  2F4D               	goto	u2281
  2240     0F4C  2F4E               	goto	u2280
  2241     0F4D                     u2281:
  2242     0F4D  2F62               	goto	l1833
  2243     0F4E                     u2280:
  2244     0F4E                     l1829:
  2245     0F4E  1FB4               	btfss	___xxtofl@val+3,7
  2246     0F4F  2F51               	goto	u2291
  2247     0F50  2F52               	goto	u2290
  2248     0F51                     u2291:
  2249     0F51  2F62               	goto	l1833
  2250     0F52                     u2290:
  2251     0F52                     l1831:
  2252     0F52  0931               	comf	___xxtofl@val,w
  2253     0F53  00BB               	movwf	___xxtofl@arg
  2254     0F54  0932               	comf	___xxtofl@val+1,w
  2255     0F55  00BC               	movwf	___xxtofl@arg+1
  2256     0F56  0933               	comf	___xxtofl@val+2,w
  2257     0F57  00BD               	movwf	___xxtofl@arg+2
  2258     0F58  0934               	comf	___xxtofl@val+3,w
  2259     0F59  00BE               	movwf	___xxtofl@arg+3
  2260     0F5A  0ABB               	incf	___xxtofl@arg,f
  2261     0F5B  1903               	skipnz
  2262     0F5C  0ABC               	incf	___xxtofl@arg+1,f
  2263     0F5D  1903               	skipnz
  2264     0F5E  0ABD               	incf	___xxtofl@arg+2,f
  2265     0F5F  1903               	skipnz
  2266     0F60  0ABE               	incf	___xxtofl@arg+3,f
  2267     0F61  2F6A               	goto	l756
  2268     0F62                     l1833:
  2269     0F62  0834               	movf	___xxtofl@val+3,w
  2270     0F63  00BE               	movwf	___xxtofl@arg+3
  2271     0F64  0833               	movf	___xxtofl@val+2,w
  2272     0F65  00BD               	movwf	___xxtofl@arg+2
  2273     0F66  0832               	movf	___xxtofl@val+1,w
  2274     0F67  00BC               	movwf	___xxtofl@arg+1
  2275     0F68  0831               	movf	___xxtofl@val,w
  2276     0F69  00BB               	movwf	___xxtofl@arg
  2277     0F6A                     l756:
  2278     0F6A  0834               	movf	___xxtofl@val+3,w
  2279     0F6B  0433               	iorwf	___xxtofl@val+2,w
  2280     0F6C  0432               	iorwf	___xxtofl@val+1,w
  2281     0F6D  0431               	iorwf	___xxtofl@val,w
  2282     0F6E  1D03               	skipz
  2283     0F6F  2F71               	goto	u2301
  2284     0F70  2F72               	goto	u2300
  2285     0F71                     u2301:
  2286     0F71  2F7B               	goto	l1839
  2287     0F72                     u2300:
  2288     0F72                     l1835:
  2289     0F72  3000               	movlw	0
  2290     0F73  00B4               	movwf	?___xxtofl+3
  2291     0F74  3000               	movlw	0
  2292     0F75  00B3               	movwf	?___xxtofl+2
  2293     0F76  3000               	movlw	0
  2294     0F77  00B2               	movwf	?___xxtofl+1
  2295     0F78  3000               	movlw	0
  2296     0F79  00B1               	movwf	?___xxtofl
  2297     0F7A  2FFF               	goto	l758
  2298     0F7B                     l1839:
  2299     0F7B  3096               	movlw	150
  2300     0F7C  00BA               	movwf	___xxtofl@exp
  2301     0F7D  2F8B               	goto	l1843
  2302     0F7E                     l1841:
  2303     0F7E  3001               	movlw	1
  2304     0F7F  00B5               	movwf	??___xxtofl
  2305     0F80  0835               	movf	??___xxtofl,w
  2306     0F81  07BA               	addwf	___xxtofl@exp,f
  2307     0F82  3001               	movlw	1
  2308     0F83                     u2315:
  2309     0F83  1003               	clrc
  2310     0F84  0CBE               	rrf	___xxtofl@arg+3,f
  2311     0F85  0CBD               	rrf	___xxtofl@arg+2,f
  2312     0F86  0CBC               	rrf	___xxtofl@arg+1,f
  2313     0F87  0CBB               	rrf	___xxtofl@arg,f
  2314     0F88  3EFF               	addlw	-1
  2315     0F89  1D03               	skipz
  2316     0F8A  2F83               	goto	u2315
  2317     0F8B                     l1843:
  2318     0F8B  30FE               	movlw	254
  2319     0F8C  053E               	andwf	___xxtofl@arg+3,w
  2320     0F8D  1D03               	btfss	3,2
  2321     0F8E  2F90               	goto	u2321
  2322     0F8F  2F91               	goto	u2320
  2323     0F90                     u2321:
  2324     0F90  2F7E               	goto	l1841
  2325     0F91                     u2320:
  2326     0F91  2FAD               	goto	l762
  2327     0F92                     l1845:
  2328     0F92  3001               	movlw	1
  2329     0F93  00B5               	movwf	??___xxtofl
  2330     0F94  0835               	movf	??___xxtofl,w
  2331     0F95  07BA               	addwf	___xxtofl@exp,f
  2332     0F96                     l1847:
  2333     0F96  3001               	movlw	1
  2334     0F97  07BB               	addwf	___xxtofl@arg,f
  2335     0F98  3000               	movlw	0
  2336     0F99  1803               	skipnc
  2337     0F9A  3001               	movlw	1
  2338     0F9B  07BC               	addwf	___xxtofl@arg+1,f
  2339     0F9C  3000               	movlw	0
  2340     0F9D  1803               	skipnc
  2341     0F9E  3001               	movlw	1
  2342     0F9F  07BD               	addwf	___xxtofl@arg+2,f
  2343     0FA0  3000               	movlw	0
  2344     0FA1  1803               	skipnc
  2345     0FA2  3001               	movlw	1
  2346     0FA3  07BE               	addwf	___xxtofl@arg+3,f
  2347     0FA4                     l1849:
  2348     0FA4  3001               	movlw	1
  2349     0FA5                     u2335:
  2350     0FA5  1003               	clrc
  2351     0FA6  0CBE               	rrf	___xxtofl@arg+3,f
  2352     0FA7  0CBD               	rrf	___xxtofl@arg+2,f
  2353     0FA8  0CBC               	rrf	___xxtofl@arg+1,f
  2354     0FA9  0CBB               	rrf	___xxtofl@arg,f
  2355     0FAA  3EFF               	addlw	-1
  2356     0FAB  1D03               	skipz
  2357     0FAC  2FA5               	goto	u2335
  2358     0FAD                     l762:
  2359     0FAD  30FF               	movlw	255
  2360     0FAE  053E               	andwf	___xxtofl@arg+3,w
  2361     0FAF  1D03               	btfss	3,2
  2362     0FB0  2FB2               	goto	u2341
  2363     0FB1  2FB3               	goto	u2340
  2364     0FB2                     u2341:
  2365     0FB2  2F92               	goto	l1845
  2366     0FB3                     u2340:
  2367     0FB3  2FBF               	goto	l1853
  2368     0FB4                     l1851:
  2369     0FB4  3001               	movlw	1
  2370     0FB5  02BA               	subwf	___xxtofl@exp,f
  2371     0FB6  3001               	movlw	1
  2372     0FB7  00B5               	movwf	??___xxtofl
  2373     0FB8                     u2355:
  2374     0FB8  1003               	clrc
  2375     0FB9  0DBB               	rlf	___xxtofl@arg,f
  2376     0FBA  0DBC               	rlf	___xxtofl@arg+1,f
  2377     0FBB  0DBD               	rlf	___xxtofl@arg+2,f
  2378     0FBC  0DBE               	rlf	___xxtofl@arg+3,f
  2379     0FBD  0BB5               	decfsz	??___xxtofl,f
  2380     0FBE  2FB8               	goto	u2355
  2381     0FBF                     l1853:
  2382     0FBF  1BBD               	btfsc	___xxtofl@arg+2,7
  2383     0FC0  2FC2               	goto	u2361
  2384     0FC1  2FC3               	goto	u2360
  2385     0FC2                     u2361:
  2386     0FC2  2FC9               	goto	l769
  2387     0FC3                     u2360:
  2388     0FC3                     l1855:
  2389     0FC3  3002               	movlw	2
  2390     0FC4  023A               	subwf	___xxtofl@exp,w
  2391     0FC5  1803               	skipnc
  2392     0FC6  2FC8               	goto	u2371
  2393     0FC7  2FC9               	goto	u2370
  2394     0FC8                     u2371:
  2395     0FC8  2FB4               	goto	l1851
  2396     0FC9                     u2370:
  2397     0FC9                     l769:
  2398     0FC9  183A               	btfsc	___xxtofl@exp,0
  2399     0FCA  2FCC               	goto	u2381
  2400     0FCB  2FCD               	goto	u2380
  2401     0FCC                     u2381:
  2402     0FCC  2FD5               	goto	l770
  2403     0FCD                     u2380:
  2404     0FCD                     l1857:
  2405     0FCD  30FF               	movlw	255
  2406     0FCE  05BB               	andwf	___xxtofl@arg,f
  2407     0FCF  30FF               	movlw	255
  2408     0FD0  05BC               	andwf	___xxtofl@arg+1,f
  2409     0FD1  307F               	movlw	127
  2410     0FD2  05BD               	andwf	___xxtofl@arg+2,f
  2411     0FD3  30FF               	movlw	255
  2412     0FD4  05BE               	andwf	___xxtofl@arg+3,f
  2413     0FD5                     l770:
  2414     0FD5  1003               	clrc
  2415     0FD6  0CBA               	rrf	___xxtofl@exp,f
  2416     0FD7                     l1859:
  2417     0FD7  083A               	movf	___xxtofl@exp,w
  2418     0FD8  00B5               	movwf	??___xxtofl
  2419     0FD9  01B6               	clrf	??___xxtofl+1
  2420     0FDA  01B7               	clrf	??___xxtofl+2
  2421     0FDB  01B8               	clrf	??___xxtofl+3
  2422     0FDC  3018               	movlw	24
  2423     0FDD                     u2395:
  2424     0FDD  1003               	clrc
  2425     0FDE  0DB5               	rlf	??___xxtofl,f
  2426     0FDF  0DB6               	rlf	??___xxtofl+1,f
  2427     0FE0  0DB7               	rlf	??___xxtofl+2,f
  2428     0FE1  0DB8               	rlf	??___xxtofl+3,f
  2429     0FE2                     u2390:
  2430     0FE2  3EFF               	addlw	-1
  2431     0FE3  1D03               	skipz
  2432     0FE4  2FDD               	goto	u2395
  2433     0FE5  0835               	movf	??___xxtofl,w
  2434     0FE6  04BB               	iorwf	___xxtofl@arg,f
  2435     0FE7  0836               	movf	??___xxtofl+1,w
  2436     0FE8  04BC               	iorwf	___xxtofl@arg+1,f
  2437     0FE9  0837               	movf	??___xxtofl+2,w
  2438     0FEA  04BD               	iorwf	___xxtofl@arg+2,f
  2439     0FEB  0838               	movf	??___xxtofl+3,w
  2440     0FEC  04BE               	iorwf	___xxtofl@arg+3,f
  2441     0FED                     l1861:
  2442     0FED  0839               	movf	___xxtofl@sign,w
  2443     0FEE  1903               	btfsc	3,2
  2444     0FEF  2FF1               	goto	u2401
  2445     0FF0  2FF2               	goto	u2400
  2446     0FF1                     u2401:
  2447     0FF1  2FF7               	goto	l1867
  2448     0FF2                     u2400:
  2449     0FF2                     l1863:
  2450     0FF2  1FB4               	btfss	___xxtofl@val+3,7
  2451     0FF3  2FF5               	goto	u2411
  2452     0FF4  2FF6               	goto	u2410
  2453     0FF5                     u2411:
  2454     0FF5  2FF7               	goto	l1867
  2455     0FF6                     u2410:
  2456     0FF6                     l1865:
  2457     0FF6  17BE               	bsf	___xxtofl@arg+3,7
  2458     0FF7                     l1867:
  2459     0FF7  083E               	movf	___xxtofl@arg+3,w
  2460     0FF8  00B4               	movwf	?___xxtofl+3
  2461     0FF9  083D               	movf	___xxtofl@arg+2,w
  2462     0FFA  00B3               	movwf	?___xxtofl+2
  2463     0FFB  083C               	movf	___xxtofl@arg+1,w
  2464     0FFC  00B2               	movwf	?___xxtofl+1
  2465     0FFD  083B               	movf	___xxtofl@arg,w
  2466     0FFE  00B1               	movwf	?___xxtofl
  2467     0FFF                     l758:
  2468     0FFF  0008               	return
  2469     1000                     __end_of___xxtofl:
  2470                           
  2471                           	psect	text10
  2472     0DFA                     __ptext10:	
  2473 ;; *************** function ___fltol *****************
  2474 ;; Defined at:
  2475 ;;		line 43 in file "C:\Program Files\Microchip\xc8\v2.40\pic\sources\c90\common\fltol.c"
  2476 ;; Parameters:    Size  Location     Type
  2477 ;;  f1              4   13[BANK1 ] unsigned char 
  2478 ;; Auto vars:     Size  Location     Type
  2479 ;;  exp1            1   75[BANK0 ] unsigned char 
  2480 ;;  sign1           1   74[BANK0 ] unsigned char 
  2481 ;; Return value:  Size  Location     Type
  2482 ;;                  4   13[BANK1 ] long 
  2483 ;; Registers used:
  2484 ;;		wreg, status,2, status,0
  2485 ;; Tracked objects:
  2486 ;;		On entry : 0/0
  2487 ;;		On exit  : 0/0
  2488 ;;		Unchanged: 0/0
  2489 ;; Data sizes:     COMMON   BANK0   BANK1   BANK3   BANK2
  2490 ;;      Params:         0       0       4       0       0
  2491 ;;      Locals:         0       2       0       0       0
  2492 ;;      Temps:          0       4       0       0       0
  2493 ;;      Totals:         0       6       4       0       0
  2494 ;;Total ram usage:       10 bytes
  2495 ;; Hardware stack levels used: 1
  2496 ;; Hardware stack levels required when called: 1
  2497 ;; This function calls:
  2498 ;;		Nothing
  2499 ;; This function is called by:
  2500 ;;		_applyPWMDutyCycle
  2501 ;; This function uses a non-reentrant model
  2502 ;;
  2503                           
  2504     0DFA                     ___fltol:	
  2505                           ;psect for function ___fltol
  2506                           
  2507     0DFA                     l2087:	
  2508                           ;incstack = 0
  2509                           ; Regs used in ___fltol: [wreg+status,2+status,0]
  2510                           
  2511     0DFA  1003               	clrc
  2512     0DFB  1683               	bsf	3,5	;RP0=1, select bank1
  2513     0DFC  1303               	bcf	3,6	;RP1=0, select bank1
  2514     0DFD  0D2F               	rlf	(___fltol@f1+2)^(0+128),w
  2515     0DFE  0D30               	rlf	(___fltol@f1+3)^(0+128),w
  2516     0DFF  1283               	bcf	3,5	;RP0=0, select bank0
  2517     0E00  1303               	bcf	3,6	;RP1=0, select bank0
  2518     0E01  00EB               	movwf	___fltol@exp1
  2519     0E02  086B               	movf	___fltol@exp1,w
  2520     0E03  1D03               	btfss	3,2
  2521     0E04  2E06               	goto	u2891
  2522     0E05  2E07               	goto	u2890
  2523     0E06                     u2891:
  2524     0E06  2E12               	goto	l2093
  2525     0E07                     u2890:
  2526     0E07                     l2089:
  2527     0E07  3000               	movlw	0
  2528     0E08  1683               	bsf	3,5	;RP0=1, select bank1
  2529     0E09  1303               	bcf	3,6	;RP1=0, select bank1
  2530     0E0A  00B0               	movwf	(?___fltol+3)^(0+128)
  2531     0E0B  3000               	movlw	0
  2532     0E0C  00AF               	movwf	(?___fltol+2)^(0+128)
  2533     0E0D  3000               	movlw	0
  2534     0E0E  00AE               	movwf	(?___fltol+1)^(0+128)
  2535     0E0F  3000               	movlw	0
  2536     0E10  00AD               	movwf	?___fltol^(0+128)
  2537     0E11  2E93               	goto	l509
  2538     0E12                     l2093:
  2539     0E12  1683               	bsf	3,5	;RP0=1, select bank1
  2540     0E13  1303               	bcf	3,6	;RP1=0, select bank1
  2541     0E14  082D               	movf	___fltol@f1^(0+128),w
  2542     0E15  1283               	bcf	3,5	;RP0=0, select bank0
  2543     0E16  1303               	bcf	3,6	;RP1=0, select bank0
  2544     0E17  00E6               	movwf	??___fltol
  2545     0E18  1683               	bsf	3,5	;RP0=1, select bank1
  2546     0E19  1303               	bcf	3,6	;RP1=0, select bank1
  2547     0E1A  082E               	movf	(___fltol@f1+1)^(0+128),w
  2548     0E1B  1283               	bcf	3,5	;RP0=0, select bank0
  2549     0E1C  1303               	bcf	3,6	;RP1=0, select bank0
  2550     0E1D  00E7               	movwf	??___fltol+1
  2551     0E1E  1683               	bsf	3,5	;RP0=1, select bank1
  2552     0E1F  1303               	bcf	3,6	;RP1=0, select bank1
  2553     0E20  082F               	movf	(___fltol@f1+2)^(0+128),w
  2554     0E21  1283               	bcf	3,5	;RP0=0, select bank0
  2555     0E22  1303               	bcf	3,6	;RP1=0, select bank0
  2556     0E23  00E8               	movwf	??___fltol+2
  2557     0E24  1683               	bsf	3,5	;RP0=1, select bank1
  2558     0E25  1303               	bcf	3,6	;RP1=0, select bank1
  2559     0E26  0830               	movf	(___fltol@f1+3)^(0+128),w
  2560     0E27  1283               	bcf	3,5	;RP0=0, select bank0
  2561     0E28  1303               	bcf	3,6	;RP1=0, select bank0
  2562     0E29  00E9               	movwf	??___fltol+3
  2563     0E2A  301F               	movlw	31
  2564     0E2B                     u2905:
  2565     0E2B  1003               	clrc
  2566     0E2C  0CE9               	rrf	??___fltol+3,f
  2567     0E2D  0CE8               	rrf	??___fltol+2,f
  2568     0E2E  0CE7               	rrf	??___fltol+1,f
  2569     0E2F  0CE6               	rrf	??___fltol,f
  2570     0E30                     u2900:
  2571     0E30  3EFF               	addlw	-1
  2572     0E31  1D03               	skipz
  2573     0E32  2E2B               	goto	u2905
  2574     0E33  0866               	movf	??___fltol,w
  2575     0E34  00EA               	movwf	___fltol@sign1
  2576     0E35                     l2095:
  2577     0E35  1683               	bsf	3,5	;RP0=1, select bank1
  2578     0E36  1303               	bcf	3,6	;RP1=0, select bank1
  2579     0E37  17AF               	bsf	(___fltol@f1^(0+128)+2),7
  2580     0E38                     l2097:
  2581     0E38  30FF               	movlw	255
  2582     0E39  05AD               	andwf	___fltol@f1^(0+128),f
  2583     0E3A  30FF               	movlw	255
  2584     0E3B  05AE               	andwf	(___fltol@f1+1)^(0+128),f
  2585     0E3C  30FF               	movlw	255
  2586     0E3D  05AF               	andwf	(___fltol@f1+2)^(0+128),f
  2587     0E3E  3000               	movlw	0
  2588     0E3F  05B0               	andwf	(___fltol@f1+3)^(0+128),f
  2589     0E40                     l2099:
  2590     0E40  3096               	movlw	150
  2591     0E41  1283               	bcf	3,5	;RP0=0, select bank0
  2592     0E42  1303               	bcf	3,6	;RP1=0, select bank0
  2593     0E43  02EB               	subwf	___fltol@exp1,f
  2594     0E44                     l2101:
  2595     0E44  1FEB               	btfss	___fltol@exp1,7
  2596     0E45  2E47               	goto	u2911
  2597     0E46  2E48               	goto	u2910
  2598     0E47                     u2911:
  2599     0E47  2E66               	goto	l2111
  2600     0E48                     u2910:
  2601     0E48                     l2103:
  2602     0E48  086B               	movf	___fltol@exp1,w
  2603     0E49  3A80               	xorlw	128
  2604     0E4A  3E97               	addlw	151
  2605     0E4B  1803               	skipnc
  2606     0E4C  2E4E               	goto	u2921
  2607     0E4D  2E4F               	goto	u2920
  2608     0E4E                     u2921:
  2609     0E4E  2E50               	goto	l2109
  2610     0E4F                     u2920:
  2611     0E4F  2E07               	goto	l2089
  2612     0E50                     l2109:
  2613     0E50  3001               	movlw	1
  2614     0E51                     u2935:
  2615     0E51  1003               	clrc
  2616     0E52  1683               	bsf	3,5	;RP0=1, select bank1
  2617     0E53  1303               	bcf	3,6	;RP1=0, select bank1
  2618     0E54  0CB0               	rrf	(___fltol@f1+3)^(0+128),f
  2619     0E55  0CAF               	rrf	(___fltol@f1+2)^(0+128),f
  2620     0E56  0CAE               	rrf	(___fltol@f1+1)^(0+128),f
  2621     0E57  0CAD               	rrf	___fltol@f1^(0+128),f
  2622     0E58  3EFF               	addlw	-1
  2623     0E59  1D03               	skipz
  2624     0E5A  2E51               	goto	u2935
  2625     0E5B  3001               	movlw	1
  2626     0E5C  1283               	bcf	3,5	;RP0=0, select bank0
  2627     0E5D  1303               	bcf	3,6	;RP1=0, select bank0
  2628     0E5E  00E6               	movwf	??___fltol
  2629     0E5F  0866               	movf	??___fltol,w
  2630     0E60  07EB               	addwf	___fltol@exp1,f
  2631     0E61  1D03               	btfss	3,2
  2632     0E62  2E64               	goto	u2941
  2633     0E63  2E65               	goto	u2940
  2634     0E64                     u2941:
  2635     0E64  2E50               	goto	l2109
  2636     0E65                     u2940:
  2637     0E65  2E81               	goto	l2119
  2638     0E66                     l2111:
  2639     0E66  3020               	movlw	32
  2640     0E67  026B               	subwf	___fltol@exp1,w
  2641     0E68  1C03               	skipc
  2642     0E69  2E6B               	goto	u2951
  2643     0E6A  2E6C               	goto	u2950
  2644     0E6B                     u2951:
  2645     0E6B  2E7C               	goto	l516
  2646     0E6C                     u2950:
  2647     0E6C  2E07               	goto	l2089
  2648     0E6D                     l2117:
  2649     0E6D  3001               	movlw	1
  2650     0E6E  00E6               	movwf	??___fltol
  2651     0E6F                     u2965:
  2652     0E6F  1003               	clrc
  2653     0E70  1683               	bsf	3,5	;RP0=1, select bank1
  2654     0E71  1303               	bcf	3,6	;RP1=0, select bank1
  2655     0E72  0DAD               	rlf	___fltol@f1^(0+128),f
  2656     0E73  0DAE               	rlf	(___fltol@f1+1)^(0+128),f
  2657     0E74  0DAF               	rlf	(___fltol@f1+2)^(0+128),f
  2658     0E75  0DB0               	rlf	(___fltol@f1+3)^(0+128),f
  2659     0E76  1283               	bcf	3,5	;RP0=0, select bank0
  2660     0E77  1303               	bcf	3,6	;RP1=0, select bank0
  2661     0E78  0BE6               	decfsz	??___fltol,f
  2662     0E79  2E6F               	goto	u2965
  2663     0E7A  3001               	movlw	1
  2664     0E7B  02EB               	subwf	___fltol@exp1,f
  2665     0E7C                     l516:
  2666     0E7C  086B               	movf	___fltol@exp1,w
  2667     0E7D  1D03               	btfss	3,2
  2668     0E7E  2E80               	goto	u2971
  2669     0E7F  2E81               	goto	u2970
  2670     0E80                     u2971:
  2671     0E80  2E6D               	goto	l2117
  2672     0E81                     u2970:
  2673     0E81                     l2119:
  2674     0E81  086A               	movf	___fltol@sign1,w
  2675     0E82  1903               	btfsc	3,2
  2676     0E83  2E85               	goto	u2981
  2677     0E84  2E86               	goto	u2980
  2678     0E85                     u2981:
  2679     0E85  2E93               	goto	l519
  2680     0E86                     u2980:
  2681     0E86                     l2121:
  2682     0E86  1683               	bsf	3,5	;RP0=1, select bank1
  2683     0E87  1303               	bcf	3,6	;RP1=0, select bank1
  2684     0E88  09AD               	comf	___fltol@f1^(0+128),f
  2685     0E89  09AE               	comf	(___fltol@f1+1)^(0+128),f
  2686     0E8A  09AF               	comf	(___fltol@f1+2)^(0+128),f
  2687     0E8B  09B0               	comf	(___fltol@f1+3)^(0+128),f
  2688     0E8C  0AAD               	incf	___fltol@f1^(0+128),f
  2689     0E8D  1903               	skipnz
  2690     0E8E  0AAE               	incf	(___fltol@f1+1)^(0+128),f
  2691     0E8F  1903               	skipnz
  2692     0E90  0AAF               	incf	(___fltol@f1+2)^(0+128),f
  2693     0E91  1903               	skipnz
  2694     0E92  0AB0               	incf	(___fltol@f1+3)^(0+128),f
  2695     0E93                     l519:
  2696     0E93                     l509:
  2697     0E93  0008               	return
  2698     0E94                     __end_of___fltol:
  2699                           
  2700                           	psect	text11
  2701     0025                     __ptext11:	
  2702 ;; *************** function ___flmul *****************
  2703 ;; Defined at:
  2704 ;;		line 8 in file "C:\Program Files\Microchip\xc8\v2.40\pic\sources\c90\common\sprcmul.c"
  2705 ;; Parameters:    Size  Location     Type
  2706 ;;  b               4   57[BANK0 ] long 
  2707 ;;  a               4   61[BANK0 ] long 
  2708 ;; Auto vars:     Size  Location     Type
  2709 ;;  prod            4    7[BANK1 ] struct .
  2710 ;;  grs             4    2[BANK1 ] unsigned long 
  2711 ;;  temp            2   11[BANK1 ] struct .
  2712 ;;  bexp            1    6[BANK1 ] unsigned char 
  2713 ;;  aexp            1    1[BANK1 ] unsigned char 
  2714 ;;  sign            1    0[BANK1 ] unsigned char 
  2715 ;; Return value:  Size  Location     Type
  2716 ;;                  4   57[BANK0 ] unsigned char 
  2717 ;; Registers used:
  2718 ;;		wreg, status,2, status,0, btemp+1, pclath, cstack
  2719 ;; Tracked objects:
  2720 ;;		On entry : 0/0
  2721 ;;		On exit  : 0/0
  2722 ;;		Unchanged: 0/0
  2723 ;; Data sizes:     COMMON   BANK0   BANK1   BANK3   BANK2
  2724 ;;      Params:         0       8       0       0       0
  2725 ;;      Locals:         0       0      13       0       0
  2726 ;;      Temps:          0       5       0       0       0
  2727 ;;      Totals:         0      13      13       0       0
  2728 ;;Total ram usage:       26 bytes
  2729 ;; Hardware stack levels used: 1
  2730 ;; Hardware stack levels required when called: 2
  2731 ;; This function calls:
  2732 ;;		__Umul8_16
  2733 ;; This function is called by:
  2734 ;;		_applyPWMDutyCycle
  2735 ;; This function uses a non-reentrant model
  2736 ;;
  2737                           
  2738     0025                     ___flmul:	
  2739                           ;psect for function ___flmul
  2740                           
  2741     0025                     l2123:	
  2742                           ;incstack = 0
  2743                           ; Regs used in ___flmul: [wreg+status,2+status,0+btemp+1+pclath+cstack]
  2744                           
  2745     0025  1283               	bcf	3,5	;RP0=0, select bank0
  2746     0026  1303               	bcf	3,6	;RP1=0, select bank0
  2747     0027  085C               	movf	___flmul@b+3,w
  2748     0028  3980               	andlw	128
  2749     0029  1683               	bsf	3,5	;RP0=1, select bank1
  2750     002A  1303               	bcf	3,6	;RP1=0, select bank1
  2751     002B  00A0               	movwf	___flmul@sign^(0+128)
  2752     002C                     l2125:
  2753     002C  1283               	bcf	3,5	;RP0=0, select bank0
  2754     002D  1303               	bcf	3,6	;RP1=0, select bank0
  2755     002E  085C               	movf	___flmul@b+3,w
  2756     002F  00E1               	movwf	??___flmul
  2757     0030  0761               	addwf	??___flmul,w
  2758     0031  1683               	bsf	3,5	;RP0=1, select bank1
  2759     0032  1303               	bcf	3,6	;RP1=0, select bank1
  2760     0033  00A6               	movwf	___flmul@bexp^(0+128)
  2761     0034                     l2127:
  2762     0034  1283               	bcf	3,5	;RP0=0, select bank0
  2763     0035  1303               	bcf	3,6	;RP1=0, select bank0
  2764     0036  1FDB               	btfss	___flmul@b+2,7
  2765     0037  2839               	goto	u2991
  2766     0038  283A               	goto	u2990
  2767     0039                     u2991:
  2768     0039  283D               	goto	l2131
  2769     003A                     u2990:
  2770     003A                     l2129:
  2771     003A  1683               	bsf	3,5	;RP0=1, select bank1
  2772     003B  1303               	bcf	3,6	;RP1=0, select bank1
  2773     003C  1426               	bsf	___flmul@bexp^(0+128),0
  2774     003D                     l2131:
  2775     003D  1683               	bsf	3,5	;RP0=1, select bank1
  2776     003E  1303               	bcf	3,6	;RP1=0, select bank1
  2777     003F  0826               	movf	___flmul@bexp^(0+128),w
  2778     0040  1903               	btfsc	3,2
  2779     0041  2843               	goto	u3001
  2780     0042  2844               	goto	u3000
  2781     0043                     u3001:
  2782     0043  2856               	goto	l2139
  2783     0044                     u3000:
  2784     0044                     l2133:
  2785     0044  0A26               	incf	___flmul@bexp^(0+128),w
  2786     0045  1D03               	btfss	3,2
  2787     0046  2848               	goto	u3011
  2788     0047  2849               	goto	u3010
  2789     0048                     u3011:
  2790     0048  2853               	goto	l2137
  2791     0049                     u3010:
  2792     0049                     l2135:
  2793     0049  3000               	movlw	0
  2794     004A  1283               	bcf	3,5	;RP0=0, select bank0
  2795     004B  1303               	bcf	3,6	;RP1=0, select bank0
  2796     004C  00DC               	movwf	___flmul@b+3
  2797     004D  3000               	movlw	0
  2798     004E  00DB               	movwf	___flmul@b+2
  2799     004F  3000               	movlw	0
  2800     0050  00DA               	movwf	___flmul@b+1
  2801     0051  3000               	movlw	0
  2802     0052  00D9               	movwf	___flmul@b
  2803     0053                     l2137:
  2804     0053  1283               	bcf	3,5	;RP0=0, select bank0
  2805     0054  17DB               	bsf	___flmul@b+2,7
  2806     0055  2860               	goto	l2141
  2807     0056                     l2139:
  2808     0056  3000               	movlw	0
  2809     0057  1283               	bcf	3,5	;RP0=0, select bank0
  2810     0058  1303               	bcf	3,6	;RP1=0, select bank0
  2811     0059  00DC               	movwf	___flmul@b+3
  2812     005A  3000               	movlw	0
  2813     005B  00DB               	movwf	___flmul@b+2
  2814     005C  3000               	movlw	0
  2815     005D  00DA               	movwf	___flmul@b+1
  2816     005E  3000               	movlw	0
  2817     005F  00D9               	movwf	___flmul@b
  2818     0060                     l2141:
  2819     0060  0860               	movf	___flmul@a+3,w
  2820     0061  3980               	andlw	128
  2821     0062  00E1               	movwf	??___flmul
  2822     0063  0861               	movf	??___flmul,w
  2823     0064  1683               	bsf	3,5	;RP0=1, select bank1
  2824     0065  1303               	bcf	3,6	;RP1=0, select bank1
  2825     0066  06A0               	xorwf	___flmul@sign^(0+128),f
  2826     0067                     l2143:
  2827     0067  1283               	bcf	3,5	;RP0=0, select bank0
  2828     0068  1303               	bcf	3,6	;RP1=0, select bank0
  2829     0069  0860               	movf	___flmul@a+3,w
  2830     006A  00E1               	movwf	??___flmul
  2831     006B  0761               	addwf	??___flmul,w
  2832     006C  1683               	bsf	3,5	;RP0=1, select bank1
  2833     006D  1303               	bcf	3,6	;RP1=0, select bank1
  2834     006E  00A1               	movwf	___flmul@aexp^(0+128)
  2835     006F                     l2145:
  2836     006F  1283               	bcf	3,5	;RP0=0, select bank0
  2837     0070  1303               	bcf	3,6	;RP1=0, select bank0
  2838     0071  1FDF               	btfss	___flmul@a+2,7
  2839     0072  2874               	goto	u3021
  2840     0073  2875               	goto	u3020
  2841     0074                     u3021:
  2842     0074  2878               	goto	l2149
  2843     0075                     u3020:
  2844     0075                     l2147:
  2845     0075  1683               	bsf	3,5	;RP0=1, select bank1
  2846     0076  1303               	bcf	3,6	;RP1=0, select bank1
  2847     0077  1421               	bsf	___flmul@aexp^(0+128),0
  2848     0078                     l2149:
  2849     0078  1683               	bsf	3,5	;RP0=1, select bank1
  2850     0079  1303               	bcf	3,6	;RP1=0, select bank1
  2851     007A  0821               	movf	___flmul@aexp^(0+128),w
  2852     007B  1903               	btfsc	3,2
  2853     007C  287E               	goto	u3031
  2854     007D  287F               	goto	u3030
  2855     007E                     u3031:
  2856     007E  2891               	goto	l2157
  2857     007F                     u3030:
  2858     007F                     l2151:
  2859     007F  0A21               	incf	___flmul@aexp^(0+128),w
  2860     0080  1D03               	btfss	3,2
  2861     0081  2883               	goto	u3041
  2862     0082  2884               	goto	u3040
  2863     0083                     u3041:
  2864     0083  288E               	goto	l2155
  2865     0084                     u3040:
  2866     0084                     l2153:
  2867     0084  3000               	movlw	0
  2868     0085  1283               	bcf	3,5	;RP0=0, select bank0
  2869     0086  1303               	bcf	3,6	;RP1=0, select bank0
  2870     0087  00E0               	movwf	___flmul@a+3
  2871     0088  3000               	movlw	0
  2872     0089  00DF               	movwf	___flmul@a+2
  2873     008A  3000               	movlw	0
  2874     008B  00DE               	movwf	___flmul@a+1
  2875     008C  3000               	movlw	0
  2876     008D  00DD               	movwf	___flmul@a
  2877     008E                     l2155:
  2878     008E  1283               	bcf	3,5	;RP0=0, select bank0
  2879     008F  17DF               	bsf	___flmul@a+2,7
  2880     0090  289B               	goto	l2159
  2881     0091                     l2157:
  2882     0091  3000               	movlw	0
  2883     0092  1283               	bcf	3,5	;RP0=0, select bank0
  2884     0093  1303               	bcf	3,6	;RP1=0, select bank0
  2885     0094  00E0               	movwf	___flmul@a+3
  2886     0095  3000               	movlw	0
  2887     0096  00DF               	movwf	___flmul@a+2
  2888     0097  3000               	movlw	0
  2889     0098  00DE               	movwf	___flmul@a+1
  2890     0099  3000               	movlw	0
  2891     009A  00DD               	movwf	___flmul@a
  2892     009B                     l2159:
  2893     009B  1683               	bsf	3,5	;RP0=1, select bank1
  2894     009C  1303               	bcf	3,6	;RP1=0, select bank1
  2895     009D  0821               	movf	___flmul@aexp^(0+128),w
  2896     009E  1903               	btfsc	3,2
  2897     009F  28A1               	goto	u3051
  2898     00A0  28A2               	goto	u3050
  2899     00A1                     u3051:
  2900     00A1  28A7               	goto	l2163
  2901     00A2                     u3050:
  2902     00A2                     l2161:
  2903     00A2  0826               	movf	___flmul@bexp^(0+128),w
  2904     00A3  1D03               	btfss	3,2
  2905     00A4  28A6               	goto	u3061
  2906     00A5  28A7               	goto	u3060
  2907     00A6                     u3061:
  2908     00A6  28B2               	goto	l2167
  2909     00A7                     u3060:
  2910     00A7                     l2163:
  2911     00A7  3000               	movlw	0
  2912     00A8  1283               	bcf	3,5	;RP0=0, select bank0
  2913     00A9  1303               	bcf	3,6	;RP1=0, select bank0
  2914     00AA  00DC               	movwf	?___flmul+3
  2915     00AB  3000               	movlw	0
  2916     00AC  00DB               	movwf	?___flmul+2
  2917     00AD  3000               	movlw	0
  2918     00AE  00DA               	movwf	?___flmul+1
  2919     00AF  3000               	movlw	0
  2920     00B0  00D9               	movwf	?___flmul
  2921     00B1  2D2D               	goto	l712
  2922     00B2                     l2167:
  2923     00B2  1283               	bcf	3,5	;RP0=0, select bank0
  2924     00B3  1303               	bcf	3,6	;RP1=0, select bank0
  2925     00B4  0859               	movf	___flmul@b,w
  2926     00B5  00F3               	movwf	__Umul8_16@multiplicand
  2927     00B6  085F               	movf	___flmul@a+2,w
  2928     00B7  120A  158A  23D8  120A  118A  	fcall	__Umul8_16
  2929     00BC  0874               	movf	?__Umul8_16+1,w
  2930     00BD  1683               	bsf	3,5	;RP0=1, select bank1
  2931     00BE  1303               	bcf	3,6	;RP1=0, select bank1
  2932     00BF  00AC               	movwf	(___flmul@temp+1)^(0+128)
  2933     00C0  0873               	movf	?__Umul8_16,w
  2934     00C1  00AB               	movwf	___flmul@temp^(0+128)
  2935     00C2                     l2169:
  2936     00C2  082B               	movf	___flmul@temp^(0+128),w
  2937     00C3  1283               	bcf	3,5	;RP0=0, select bank0
  2938     00C4  1303               	bcf	3,6	;RP1=0, select bank0
  2939     00C5  00E1               	movwf	??___flmul
  2940     00C6  01E2               	clrf	??___flmul+1
  2941     00C7  01E3               	clrf	??___flmul+2
  2942     00C8  01E4               	clrf	??___flmul+3
  2943     00C9  0864               	movf	??___flmul+3,w
  2944     00CA  1683               	bsf	3,5	;RP0=1, select bank1
  2945     00CB  1303               	bcf	3,6	;RP1=0, select bank1
  2946     00CC  00A5               	movwf	(___flmul@grs+3)^(0+128)
  2947     00CD  1283               	bcf	3,5	;RP0=0, select bank0
  2948     00CE  1303               	bcf	3,6	;RP1=0, select bank0
  2949     00CF  0863               	movf	??___flmul+2,w
  2950     00D0  1683               	bsf	3,5	;RP0=1, select bank1
  2951     00D1  1303               	bcf	3,6	;RP1=0, select bank1
  2952     00D2  00A4               	movwf	(___flmul@grs+2)^(0+128)
  2953     00D3  1283               	bcf	3,5	;RP0=0, select bank0
  2954     00D4  1303               	bcf	3,6	;RP1=0, select bank0
  2955     00D5  0862               	movf	??___flmul+1,w
  2956     00D6  1683               	bsf	3,5	;RP0=1, select bank1
  2957     00D7  1303               	bcf	3,6	;RP1=0, select bank1
  2958     00D8  00A3               	movwf	(___flmul@grs+1)^(0+128)
  2959     00D9  1283               	bcf	3,5	;RP0=0, select bank0
  2960     00DA  1303               	bcf	3,6	;RP1=0, select bank0
  2961     00DB  0861               	movf	??___flmul,w
  2962     00DC  1683               	bsf	3,5	;RP0=1, select bank1
  2963     00DD  1303               	bcf	3,6	;RP1=0, select bank1
  2964     00DE  00A2               	movwf	___flmul@grs^(0+128)
  2965     00DF                     l2171:
  2966     00DF  082C               	movf	(___flmul@temp^(0+128)+1),w
  2967     00E0  1283               	bcf	3,5	;RP0=0, select bank0
  2968     00E1  1303               	bcf	3,6	;RP1=0, select bank0
  2969     00E2  00E1               	movwf	??___flmul
  2970     00E3  01E2               	clrf	??___flmul+1
  2971     00E4  01E3               	clrf	??___flmul+2
  2972     00E5  01E4               	clrf	??___flmul+3
  2973     00E6  0864               	movf	??___flmul+3,w
  2974     00E7  1683               	bsf	3,5	;RP0=1, select bank1
  2975     00E8  1303               	bcf	3,6	;RP1=0, select bank1
  2976     00E9  00AA               	movwf	(___flmul@prod+3)^(0+128)
  2977     00EA  1283               	bcf	3,5	;RP0=0, select bank0
  2978     00EB  1303               	bcf	3,6	;RP1=0, select bank0
  2979     00EC  0863               	movf	??___flmul+2,w
  2980     00ED  1683               	bsf	3,5	;RP0=1, select bank1
  2981     00EE  1303               	bcf	3,6	;RP1=0, select bank1
  2982     00EF  00A9               	movwf	(___flmul@prod+2)^(0+128)
  2983     00F0  1283               	bcf	3,5	;RP0=0, select bank0
  2984     00F1  1303               	bcf	3,6	;RP1=0, select bank0
  2985     00F2  0862               	movf	??___flmul+1,w
  2986     00F3  1683               	bsf	3,5	;RP0=1, select bank1
  2987     00F4  1303               	bcf	3,6	;RP1=0, select bank1
  2988     00F5  00A8               	movwf	(___flmul@prod+1)^(0+128)
  2989     00F6  1283               	bcf	3,5	;RP0=0, select bank0
  2990     00F7  1303               	bcf	3,6	;RP1=0, select bank0
  2991     00F8  0861               	movf	??___flmul,w
  2992     00F9  1683               	bsf	3,5	;RP0=1, select bank1
  2993     00FA  1303               	bcf	3,6	;RP1=0, select bank1
  2994     00FB  00A7               	movwf	___flmul@prod^(0+128)
  2995     00FC  1283               	bcf	3,5	;RP0=0, select bank0
  2996     00FD  1303               	bcf	3,6	;RP1=0, select bank0
  2997     00FE  085A               	movf	___flmul@b+1,w
  2998     00FF  00F3               	movwf	__Umul8_16@multiplicand
  2999     0100  085E               	movf	___flmul@a+1,w
  3000     0101  120A  158A  23D8  120A  118A  	fcall	__Umul8_16
  3001     0106  0874               	movf	?__Umul8_16+1,w
  3002     0107  1683               	bsf	3,5	;RP0=1, select bank1
  3003     0108  1303               	bcf	3,6	;RP1=0, select bank1
  3004     0109  00AC               	movwf	(___flmul@temp+1)^(0+128)
  3005     010A  0873               	movf	?__Umul8_16,w
  3006     010B  00AB               	movwf	___flmul@temp^(0+128)
  3007     010C                     l2173:
  3008     010C  082B               	movf	___flmul@temp^(0+128),w
  3009     010D  1283               	bcf	3,5	;RP0=0, select bank0
  3010     010E  1303               	bcf	3,6	;RP1=0, select bank0
  3011     010F  00E1               	movwf	??___flmul
  3012     0110  01E2               	clrf	??___flmul+1
  3013     0111  01E3               	clrf	??___flmul+2
  3014     0112  01E4               	clrf	??___flmul+3
  3015     0113  0861               	movf	??___flmul,w
  3016     0114  1683               	bsf	3,5	;RP0=1, select bank1
  3017     0115  1303               	bcf	3,6	;RP1=0, select bank1
  3018     0116  07A2               	addwf	___flmul@grs^(0+128),f
  3019     0117  1283               	bcf	3,5	;RP0=0, select bank0
  3020     0118  1303               	bcf	3,6	;RP1=0, select bank0
  3021     0119  0862               	movf	??___flmul+1,w
  3022     011A  1103               	clrz
  3023     011B  1803               	skipnc
  3024     011C  3E01               	addlw	1
  3025     011D  1903               	skipnz
  3026     011E  2922               	goto	u3071
  3027     011F  1683               	bsf	3,5	;RP0=1, select bank1
  3028     0120  1303               	bcf	3,6	;RP1=0, select bank1
  3029     0121  07A3               	addwf	(___flmul@grs+1)^(0+128),f
  3030     0122                     u3071:
  3031     0122  1283               	bcf	3,5	;RP0=0, select bank0
  3032     0123  1303               	bcf	3,6	;RP1=0, select bank0
  3033     0124  0863               	movf	??___flmul+2,w
  3034     0125  1103               	clrz
  3035     0126  1803               	skipnc
  3036     0127  3E01               	addlw	1
  3037     0128  1903               	skipnz
  3038     0129  292D               	goto	u3072
  3039     012A  1683               	bsf	3,5	;RP0=1, select bank1
  3040     012B  1303               	bcf	3,6	;RP1=0, select bank1
  3041     012C  07A4               	addwf	(___flmul@grs+2)^(0+128),f
  3042     012D                     u3072:
  3043     012D  1283               	bcf	3,5	;RP0=0, select bank0
  3044     012E  1303               	bcf	3,6	;RP1=0, select bank0
  3045     012F  0864               	movf	??___flmul+3,w
  3046     0130  1103               	clrz
  3047     0131  1803               	skipnc
  3048     0132  3E01               	addlw	1
  3049     0133  1903               	skipnz
  3050     0134  2938               	goto	u3073
  3051     0135  1683               	bsf	3,5	;RP0=1, select bank1
  3052     0136  1303               	bcf	3,6	;RP1=0, select bank1
  3053     0137  07A5               	addwf	(___flmul@grs+3)^(0+128),f
  3054     0138                     u3073:
  3055     0138  1283               	bcf	3,5	;RP0=0, select bank0
  3056     0139  1303               	bcf	3,6	;RP1=0, select bank0
  3057     013A  1683               	bsf	3,5	;RP0=1, select bank1
  3058     013B  1303               	bcf	3,6	;RP1=0, select bank1
  3059     013C                     l2175:
  3060     013C  082C               	movf	(___flmul@temp^(0+128)+1),w
  3061     013D  1283               	bcf	3,5	;RP0=0, select bank0
  3062     013E  1303               	bcf	3,6	;RP1=0, select bank0
  3063     013F  00E1               	movwf	??___flmul
  3064     0140  01E2               	clrf	??___flmul+1
  3065     0141  01E3               	clrf	??___flmul+2
  3066     0142  01E4               	clrf	??___flmul+3
  3067     0143  0861               	movf	??___flmul,w
  3068     0144  1683               	bsf	3,5	;RP0=1, select bank1
  3069     0145  1303               	bcf	3,6	;RP1=0, select bank1
  3070     0146  07A7               	addwf	___flmul@prod^(0+128),f
  3071     0147  1283               	bcf	3,5	;RP0=0, select bank0
  3072     0148  1303               	bcf	3,6	;RP1=0, select bank0
  3073     0149  0862               	movf	??___flmul+1,w
  3074     014A  1103               	clrz
  3075     014B  1803               	skipnc
  3076     014C  3E01               	addlw	1
  3077     014D  1903               	skipnz
  3078     014E  2952               	goto	u3081
  3079     014F  1683               	bsf	3,5	;RP0=1, select bank1
  3080     0150  1303               	bcf	3,6	;RP1=0, select bank1
  3081     0151  07A8               	addwf	(___flmul@prod+1)^(0+128),f
  3082     0152                     u3081:
  3083     0152  1283               	bcf	3,5	;RP0=0, select bank0
  3084     0153  1303               	bcf	3,6	;RP1=0, select bank0
  3085     0154  0863               	movf	??___flmul+2,w
  3086     0155  1103               	clrz
  3087     0156  1803               	skipnc
  3088     0157  3E01               	addlw	1
  3089     0158  1903               	skipnz
  3090     0159  295D               	goto	u3082
  3091     015A  1683               	bsf	3,5	;RP0=1, select bank1
  3092     015B  1303               	bcf	3,6	;RP1=0, select bank1
  3093     015C  07A9               	addwf	(___flmul@prod+2)^(0+128),f
  3094     015D                     u3082:
  3095     015D  1283               	bcf	3,5	;RP0=0, select bank0
  3096     015E  1303               	bcf	3,6	;RP1=0, select bank0
  3097     015F  0864               	movf	??___flmul+3,w
  3098     0160  1103               	clrz
  3099     0161  1803               	skipnc
  3100     0162  3E01               	addlw	1
  3101     0163  1903               	skipnz
  3102     0164  2968               	goto	u3083
  3103     0165  1683               	bsf	3,5	;RP0=1, select bank1
  3104     0166  1303               	bcf	3,6	;RP1=0, select bank1
  3105     0167  07AA               	addwf	(___flmul@prod+3)^(0+128),f
  3106     0168                     u3083:
  3107     0168  1283               	bcf	3,5	;RP0=0, select bank0
  3108     0169  1303               	bcf	3,6	;RP1=0, select bank0
  3109     016A  1683               	bsf	3,5	;RP0=1, select bank1
  3110     016B  1303               	bcf	3,6	;RP1=0, select bank1
  3111     016C  1283               	bcf	3,5	;RP0=0, select bank0
  3112     016D  1303               	bcf	3,6	;RP1=0, select bank0
  3113     016E  085B               	movf	___flmul@b+2,w
  3114     016F  00F3               	movwf	__Umul8_16@multiplicand
  3115     0170  085D               	movf	___flmul@a,w
  3116     0171  120A  158A  23D8  120A  118A  	fcall	__Umul8_16
  3117     0176  0874               	movf	?__Umul8_16+1,w
  3118     0177  1683               	bsf	3,5	;RP0=1, select bank1
  3119     0178  1303               	bcf	3,6	;RP1=0, select bank1
  3120     0179  00AC               	movwf	(___flmul@temp+1)^(0+128)
  3121     017A  0873               	movf	?__Umul8_16,w
  3122     017B  00AB               	movwf	___flmul@temp^(0+128)
  3123     017C                     l2177:
  3124     017C  082B               	movf	___flmul@temp^(0+128),w
  3125     017D  1283               	bcf	3,5	;RP0=0, select bank0
  3126     017E  1303               	bcf	3,6	;RP1=0, select bank0
  3127     017F  00E1               	movwf	??___flmul
  3128     0180  01E2               	clrf	??___flmul+1
  3129     0181  01E3               	clrf	??___flmul+2
  3130     0182  01E4               	clrf	??___flmul+3
  3131     0183  0861               	movf	??___flmul,w
  3132     0184  1683               	bsf	3,5	;RP0=1, select bank1
  3133     0185  1303               	bcf	3,6	;RP1=0, select bank1
  3134     0186  07A2               	addwf	___flmul@grs^(0+128),f
  3135     0187  1283               	bcf	3,5	;RP0=0, select bank0
  3136     0188  1303               	bcf	3,6	;RP1=0, select bank0
  3137     0189  0862               	movf	??___flmul+1,w
  3138     018A  1103               	clrz
  3139     018B  1803               	skipnc
  3140     018C  3E01               	addlw	1
  3141     018D  1903               	skipnz
  3142     018E  2992               	goto	u3091
  3143     018F  1683               	bsf	3,5	;RP0=1, select bank1
  3144     0190  1303               	bcf	3,6	;RP1=0, select bank1
  3145     0191  07A3               	addwf	(___flmul@grs+1)^(0+128),f
  3146     0192                     u3091:
  3147     0192  1283               	bcf	3,5	;RP0=0, select bank0
  3148     0193  1303               	bcf	3,6	;RP1=0, select bank0
  3149     0194  0863               	movf	??___flmul+2,w
  3150     0195  1103               	clrz
  3151     0196  1803               	skipnc
  3152     0197  3E01               	addlw	1
  3153     0198  1903               	skipnz
  3154     0199  299D               	goto	u3092
  3155     019A  1683               	bsf	3,5	;RP0=1, select bank1
  3156     019B  1303               	bcf	3,6	;RP1=0, select bank1
  3157     019C  07A4               	addwf	(___flmul@grs+2)^(0+128),f
  3158     019D                     u3092:
  3159     019D  1283               	bcf	3,5	;RP0=0, select bank0
  3160     019E  1303               	bcf	3,6	;RP1=0, select bank0
  3161     019F  0864               	movf	??___flmul+3,w
  3162     01A0  1103               	clrz
  3163     01A1  1803               	skipnc
  3164     01A2  3E01               	addlw	1
  3165     01A3  1903               	skipnz
  3166     01A4  29A8               	goto	u3093
  3167     01A5  1683               	bsf	3,5	;RP0=1, select bank1
  3168     01A6  1303               	bcf	3,6	;RP1=0, select bank1
  3169     01A7  07A5               	addwf	(___flmul@grs+3)^(0+128),f
  3170     01A8                     u3093:
  3171     01A8  1283               	bcf	3,5	;RP0=0, select bank0
  3172     01A9  1303               	bcf	3,6	;RP1=0, select bank0
  3173     01AA  1683               	bsf	3,5	;RP0=1, select bank1
  3174     01AB  1303               	bcf	3,6	;RP1=0, select bank1
  3175     01AC                     l2179:
  3176     01AC  082C               	movf	(___flmul@temp^(0+128)+1),w
  3177     01AD  1283               	bcf	3,5	;RP0=0, select bank0
  3178     01AE  1303               	bcf	3,6	;RP1=0, select bank0
  3179     01AF  00E1               	movwf	??___flmul
  3180     01B0  01E2               	clrf	??___flmul+1
  3181     01B1  01E3               	clrf	??___flmul+2
  3182     01B2  01E4               	clrf	??___flmul+3
  3183     01B3  0861               	movf	??___flmul,w
  3184     01B4  1683               	bsf	3,5	;RP0=1, select bank1
  3185     01B5  1303               	bcf	3,6	;RP1=0, select bank1
  3186     01B6  07A7               	addwf	___flmul@prod^(0+128),f
  3187     01B7  1283               	bcf	3,5	;RP0=0, select bank0
  3188     01B8  1303               	bcf	3,6	;RP1=0, select bank0
  3189     01B9  0862               	movf	??___flmul+1,w
  3190     01BA  1103               	clrz
  3191     01BB  1803               	skipnc
  3192     01BC  3E01               	addlw	1
  3193     01BD  1903               	skipnz
  3194     01BE  29C2               	goto	u3101
  3195     01BF  1683               	bsf	3,5	;RP0=1, select bank1
  3196     01C0  1303               	bcf	3,6	;RP1=0, select bank1
  3197     01C1  07A8               	addwf	(___flmul@prod+1)^(0+128),f
  3198     01C2                     u3101:
  3199     01C2  1283               	bcf	3,5	;RP0=0, select bank0
  3200     01C3  1303               	bcf	3,6	;RP1=0, select bank0
  3201     01C4  0863               	movf	??___flmul+2,w
  3202     01C5  1103               	clrz
  3203     01C6  1803               	skipnc
  3204     01C7  3E01               	addlw	1
  3205     01C8  1903               	skipnz
  3206     01C9  29CD               	goto	u3102
  3207     01CA  1683               	bsf	3,5	;RP0=1, select bank1
  3208     01CB  1303               	bcf	3,6	;RP1=0, select bank1
  3209     01CC  07A9               	addwf	(___flmul@prod+2)^(0+128),f
  3210     01CD                     u3102:
  3211     01CD  1283               	bcf	3,5	;RP0=0, select bank0
  3212     01CE  1303               	bcf	3,6	;RP1=0, select bank0
  3213     01CF  0864               	movf	??___flmul+3,w
  3214     01D0  1103               	clrz
  3215     01D1  1803               	skipnc
  3216     01D2  3E01               	addlw	1
  3217     01D3  1903               	skipnz
  3218     01D4  29D8               	goto	u3103
  3219     01D5  1683               	bsf	3,5	;RP0=1, select bank1
  3220     01D6  1303               	bcf	3,6	;RP1=0, select bank1
  3221     01D7  07AA               	addwf	(___flmul@prod+3)^(0+128),f
  3222     01D8                     u3103:
  3223     01D8  1283               	bcf	3,5	;RP0=0, select bank0
  3224     01D9  1303               	bcf	3,6	;RP1=0, select bank0
  3225     01DA  1683               	bsf	3,5	;RP0=1, select bank1
  3226     01DB  1303               	bcf	3,6	;RP1=0, select bank1
  3227     01DC                     l2181:
  3228     01DC  3008               	movlw	8
  3229     01DD  1283               	bcf	3,5	;RP0=0, select bank0
  3230     01DE  1303               	bcf	3,6	;RP1=0, select bank0
  3231     01DF  00E1               	movwf	??___flmul
  3232     01E0                     u3115:
  3233     01E0  1003               	clrc
  3234     01E1  1683               	bsf	3,5	;RP0=1, select bank1
  3235     01E2  1303               	bcf	3,6	;RP1=0, select bank1
  3236     01E3  0DA2               	rlf	___flmul@grs^(0+128),f
  3237     01E4  0DA3               	rlf	(___flmul@grs+1)^(0+128),f
  3238     01E5  0DA4               	rlf	(___flmul@grs+2)^(0+128),f
  3239     01E6  0DA5               	rlf	(___flmul@grs+3)^(0+128),f
  3240     01E7  1283               	bcf	3,5	;RP0=0, select bank0
  3241     01E8  1303               	bcf	3,6	;RP1=0, select bank0
  3242     01E9  0BE1               	decfsz	??___flmul,f
  3243     01EA  29E0               	goto	u3115
  3244     01EB                     l2183:
  3245     01EB  085A               	movf	___flmul@b+1,w
  3246     01EC  00F3               	movwf	__Umul8_16@multiplicand
  3247     01ED  085D               	movf	___flmul@a,w
  3248     01EE  120A  158A  23D8  120A  118A  	fcall	__Umul8_16
  3249     01F3  0874               	movf	?__Umul8_16+1,w
  3250     01F4  1683               	bsf	3,5	;RP0=1, select bank1
  3251     01F5  1303               	bcf	3,6	;RP1=0, select bank1
  3252     01F6  00AC               	movwf	(___flmul@temp+1)^(0+128)
  3253     01F7  0873               	movf	?__Umul8_16,w
  3254     01F8  00AB               	movwf	___flmul@temp^(0+128)
  3255     01F9                     l2185:
  3256     01F9  082B               	movf	___flmul@temp^(0+128),w
  3257     01FA  1283               	bcf	3,5	;RP0=0, select bank0
  3258     01FB  1303               	bcf	3,6	;RP1=0, select bank0
  3259     01FC  00E1               	movwf	??___flmul
  3260     01FD  1683               	bsf	3,5	;RP0=1, select bank1
  3261     01FE  1303               	bcf	3,6	;RP1=0, select bank1
  3262     01FF  082C               	movf	(___flmul@temp+1)^(0+128),w
  3263     0200  1283               	bcf	3,5	;RP0=0, select bank0
  3264     0201  1303               	bcf	3,6	;RP1=0, select bank0
  3265     0202  00E2               	movwf	??___flmul+1
  3266     0203  01E3               	clrf	??___flmul+2
  3267     0204  01E4               	clrf	??___flmul+3
  3268     0205  0861               	movf	??___flmul,w
  3269     0206  1683               	bsf	3,5	;RP0=1, select bank1
  3270     0207  1303               	bcf	3,6	;RP1=0, select bank1
  3271     0208  07A2               	addwf	___flmul@grs^(0+128),f
  3272     0209  1283               	bcf	3,5	;RP0=0, select bank0
  3273     020A  1303               	bcf	3,6	;RP1=0, select bank0
  3274     020B  0862               	movf	??___flmul+1,w
  3275     020C  1103               	clrz
  3276     020D  1803               	skipnc
  3277     020E  3E01               	addlw	1
  3278     020F  1903               	skipnz
  3279     0210  2A14               	goto	u3121
  3280     0211  1683               	bsf	3,5	;RP0=1, select bank1
  3281     0212  1303               	bcf	3,6	;RP1=0, select bank1
  3282     0213  07A3               	addwf	(___flmul@grs+1)^(0+128),f
  3283     0214                     u3121:
  3284     0214  1283               	bcf	3,5	;RP0=0, select bank0
  3285     0215  1303               	bcf	3,6	;RP1=0, select bank0
  3286     0216  0863               	movf	??___flmul+2,w
  3287     0217  1103               	clrz
  3288     0218  1803               	skipnc
  3289     0219  3E01               	addlw	1
  3290     021A  1903               	skipnz
  3291     021B  2A1F               	goto	u3122
  3292     021C  1683               	bsf	3,5	;RP0=1, select bank1
  3293     021D  1303               	bcf	3,6	;RP1=0, select bank1
  3294     021E  07A4               	addwf	(___flmul@grs+2)^(0+128),f
  3295     021F                     u3122:
  3296     021F  1283               	bcf	3,5	;RP0=0, select bank0
  3297     0220  1303               	bcf	3,6	;RP1=0, select bank0
  3298     0221  0864               	movf	??___flmul+3,w
  3299     0222  1103               	clrz
  3300     0223  1803               	skipnc
  3301     0224  3E01               	addlw	1
  3302     0225  1903               	skipnz
  3303     0226  2A2A               	goto	u3123
  3304     0227  1683               	bsf	3,5	;RP0=1, select bank1
  3305     0228  1303               	bcf	3,6	;RP1=0, select bank1
  3306     0229  07A5               	addwf	(___flmul@grs+3)^(0+128),f
  3307     022A                     u3123:
  3308     022A  1283               	bcf	3,5	;RP0=0, select bank0
  3309     022B  1303               	bcf	3,6	;RP1=0, select bank0
  3310     022C  1683               	bsf	3,5	;RP0=1, select bank1
  3311     022D  1303               	bcf	3,6	;RP1=0, select bank1
  3312     022E                     l2187:
  3313     022E  1283               	bcf	3,5	;RP0=0, select bank0
  3314     022F  1303               	bcf	3,6	;RP1=0, select bank0
  3315     0230  0859               	movf	___flmul@b,w
  3316     0231  00F3               	movwf	__Umul8_16@multiplicand
  3317     0232  085E               	movf	___flmul@a+1,w
  3318     0233  120A  158A  23D8  120A  118A  	fcall	__Umul8_16
  3319     0238  0874               	movf	?__Umul8_16+1,w
  3320     0239  1683               	bsf	3,5	;RP0=1, select bank1
  3321     023A  1303               	bcf	3,6	;RP1=0, select bank1
  3322     023B  00AC               	movwf	(___flmul@temp+1)^(0+128)
  3323     023C  0873               	movf	?__Umul8_16,w
  3324     023D  00AB               	movwf	___flmul@temp^(0+128)
  3325     023E                     l2189:
  3326     023E  082B               	movf	___flmul@temp^(0+128),w
  3327     023F  1283               	bcf	3,5	;RP0=0, select bank0
  3328     0240  1303               	bcf	3,6	;RP1=0, select bank0
  3329     0241  00E1               	movwf	??___flmul
  3330     0242  1683               	bsf	3,5	;RP0=1, select bank1
  3331     0243  1303               	bcf	3,6	;RP1=0, select bank1
  3332     0244  082C               	movf	(___flmul@temp+1)^(0+128),w
  3333     0245  1283               	bcf	3,5	;RP0=0, select bank0
  3334     0246  1303               	bcf	3,6	;RP1=0, select bank0
  3335     0247  00E2               	movwf	??___flmul+1
  3336     0248  01E3               	clrf	??___flmul+2
  3337     0249  01E4               	clrf	??___flmul+3
  3338     024A  0861               	movf	??___flmul,w
  3339     024B  1683               	bsf	3,5	;RP0=1, select bank1
  3340     024C  1303               	bcf	3,6	;RP1=0, select bank1
  3341     024D  07A2               	addwf	___flmul@grs^(0+128),f
  3342     024E  1283               	bcf	3,5	;RP0=0, select bank0
  3343     024F  1303               	bcf	3,6	;RP1=0, select bank0
  3344     0250  0862               	movf	??___flmul+1,w
  3345     0251  1103               	clrz
  3346     0252  1803               	skipnc
  3347     0253  3E01               	addlw	1
  3348     0254  1903               	skipnz
  3349     0255  2A59               	goto	u3131
  3350     0256  1683               	bsf	3,5	;RP0=1, select bank1
  3351     0257  1303               	bcf	3,6	;RP1=0, select bank1
  3352     0258  07A3               	addwf	(___flmul@grs+1)^(0+128),f
  3353     0259                     u3131:
  3354     0259  1283               	bcf	3,5	;RP0=0, select bank0
  3355     025A  1303               	bcf	3,6	;RP1=0, select bank0
  3356     025B  0863               	movf	??___flmul+2,w
  3357     025C  1103               	clrz
  3358     025D  1803               	skipnc
  3359     025E  3E01               	addlw	1
  3360     025F  1903               	skipnz
  3361     0260  2A64               	goto	u3132
  3362     0261  1683               	bsf	3,5	;RP0=1, select bank1
  3363     0262  1303               	bcf	3,6	;RP1=0, select bank1
  3364     0263  07A4               	addwf	(___flmul@grs+2)^(0+128),f
  3365     0264                     u3132:
  3366     0264  1283               	bcf	3,5	;RP0=0, select bank0
  3367     0265  1303               	bcf	3,6	;RP1=0, select bank0
  3368     0266  0864               	movf	??___flmul+3,w
  3369     0267  1103               	clrz
  3370     0268  1803               	skipnc
  3371     0269  3E01               	addlw	1
  3372     026A  1903               	skipnz
  3373     026B  2A6F               	goto	u3133
  3374     026C  1683               	bsf	3,5	;RP0=1, select bank1
  3375     026D  1303               	bcf	3,6	;RP1=0, select bank1
  3376     026E  07A5               	addwf	(___flmul@grs+3)^(0+128),f
  3377     026F                     u3133:
  3378     026F  1283               	bcf	3,5	;RP0=0, select bank0
  3379     0270  1303               	bcf	3,6	;RP1=0, select bank0
  3380     0271  1683               	bsf	3,5	;RP0=1, select bank1
  3381     0272  1303               	bcf	3,6	;RP1=0, select bank1
  3382     0273                     l2191:
  3383     0273  3008               	movlw	8
  3384     0274  1283               	bcf	3,5	;RP0=0, select bank0
  3385     0275  1303               	bcf	3,6	;RP1=0, select bank0
  3386     0276  00E1               	movwf	??___flmul
  3387     0277                     u3145:
  3388     0277  1003               	clrc
  3389     0278  1683               	bsf	3,5	;RP0=1, select bank1
  3390     0279  1303               	bcf	3,6	;RP1=0, select bank1
  3391     027A  0DA2               	rlf	___flmul@grs^(0+128),f
  3392     027B  0DA3               	rlf	(___flmul@grs+1)^(0+128),f
  3393     027C  0DA4               	rlf	(___flmul@grs+2)^(0+128),f
  3394     027D  0DA5               	rlf	(___flmul@grs+3)^(0+128),f
  3395     027E  1283               	bcf	3,5	;RP0=0, select bank0
  3396     027F  1303               	bcf	3,6	;RP1=0, select bank0
  3397     0280  0BE1               	decfsz	??___flmul,f
  3398     0281  2A77               	goto	u3145
  3399     0282  0859               	movf	___flmul@b,w
  3400     0283  00F3               	movwf	__Umul8_16@multiplicand
  3401     0284  085D               	movf	___flmul@a,w
  3402     0285  120A  158A  23D8  120A  118A  	fcall	__Umul8_16
  3403     028A  0874               	movf	?__Umul8_16+1,w
  3404     028B  1683               	bsf	3,5	;RP0=1, select bank1
  3405     028C  1303               	bcf	3,6	;RP1=0, select bank1
  3406     028D  00AC               	movwf	(___flmul@temp+1)^(0+128)
  3407     028E  0873               	movf	?__Umul8_16,w
  3408     028F  00AB               	movwf	___flmul@temp^(0+128)
  3409     0290                     l2193:
  3410     0290  082B               	movf	___flmul@temp^(0+128),w
  3411     0291  1283               	bcf	3,5	;RP0=0, select bank0
  3412     0292  1303               	bcf	3,6	;RP1=0, select bank0
  3413     0293  00E1               	movwf	??___flmul
  3414     0294  1683               	bsf	3,5	;RP0=1, select bank1
  3415     0295  1303               	bcf	3,6	;RP1=0, select bank1
  3416     0296  082C               	movf	(___flmul@temp+1)^(0+128),w
  3417     0297  1283               	bcf	3,5	;RP0=0, select bank0
  3418     0298  1303               	bcf	3,6	;RP1=0, select bank0
  3419     0299  00E2               	movwf	??___flmul+1
  3420     029A  01E3               	clrf	??___flmul+2
  3421     029B  01E4               	clrf	??___flmul+3
  3422     029C  0861               	movf	??___flmul,w
  3423     029D  1683               	bsf	3,5	;RP0=1, select bank1
  3424     029E  1303               	bcf	3,6	;RP1=0, select bank1
  3425     029F  07A2               	addwf	___flmul@grs^(0+128),f
  3426     02A0  1283               	bcf	3,5	;RP0=0, select bank0
  3427     02A1  1303               	bcf	3,6	;RP1=0, select bank0
  3428     02A2  0862               	movf	??___flmul+1,w
  3429     02A3  1103               	clrz
  3430     02A4  1803               	skipnc
  3431     02A5  3E01               	addlw	1
  3432     02A6  1903               	skipnz
  3433     02A7  2AAB               	goto	u3151
  3434     02A8  1683               	bsf	3,5	;RP0=1, select bank1
  3435     02A9  1303               	bcf	3,6	;RP1=0, select bank1
  3436     02AA  07A3               	addwf	(___flmul@grs+1)^(0+128),f
  3437     02AB                     u3151:
  3438     02AB  1283               	bcf	3,5	;RP0=0, select bank0
  3439     02AC  1303               	bcf	3,6	;RP1=0, select bank0
  3440     02AD  0863               	movf	??___flmul+2,w
  3441     02AE  1103               	clrz
  3442     02AF  1803               	skipnc
  3443     02B0  3E01               	addlw	1
  3444     02B1  1903               	skipnz
  3445     02B2  2AB6               	goto	u3152
  3446     02B3  1683               	bsf	3,5	;RP0=1, select bank1
  3447     02B4  1303               	bcf	3,6	;RP1=0, select bank1
  3448     02B5  07A4               	addwf	(___flmul@grs+2)^(0+128),f
  3449     02B6                     u3152:
  3450     02B6  1283               	bcf	3,5	;RP0=0, select bank0
  3451     02B7  1303               	bcf	3,6	;RP1=0, select bank0
  3452     02B8  0864               	movf	??___flmul+3,w
  3453     02B9  1103               	clrz
  3454     02BA  1803               	skipnc
  3455     02BB  3E01               	addlw	1
  3456     02BC  1903               	skipnz
  3457     02BD  2AC1               	goto	u3153
  3458     02BE  1683               	bsf	3,5	;RP0=1, select bank1
  3459     02BF  1303               	bcf	3,6	;RP1=0, select bank1
  3460     02C0  07A5               	addwf	(___flmul@grs+3)^(0+128),f
  3461     02C1                     u3153:
  3462     02C1  1283               	bcf	3,5	;RP0=0, select bank0
  3463     02C2  1303               	bcf	3,6	;RP1=0, select bank0
  3464     02C3  1683               	bsf	3,5	;RP0=1, select bank1
  3465     02C4  1303               	bcf	3,6	;RP1=0, select bank1
  3466     02C5                     l2195:
  3467     02C5  1283               	bcf	3,5	;RP0=0, select bank0
  3468     02C6  1303               	bcf	3,6	;RP1=0, select bank0
  3469     02C7  085A               	movf	___flmul@b+1,w
  3470     02C8  00F3               	movwf	__Umul8_16@multiplicand
  3471     02C9  085F               	movf	___flmul@a+2,w
  3472     02CA  120A  158A  23D8  120A  118A  	fcall	__Umul8_16
  3473     02CF  0874               	movf	?__Umul8_16+1,w
  3474     02D0  1683               	bsf	3,5	;RP0=1, select bank1
  3475     02D1  1303               	bcf	3,6	;RP1=0, select bank1
  3476     02D2  00AC               	movwf	(___flmul@temp+1)^(0+128)
  3477     02D3  0873               	movf	?__Umul8_16,w
  3478     02D4  00AB               	movwf	___flmul@temp^(0+128)
  3479     02D5  082B               	movf	___flmul@temp^(0+128),w
  3480     02D6  1283               	bcf	3,5	;RP0=0, select bank0
  3481     02D7  1303               	bcf	3,6	;RP1=0, select bank0
  3482     02D8  00E1               	movwf	??___flmul
  3483     02D9  1683               	bsf	3,5	;RP0=1, select bank1
  3484     02DA  1303               	bcf	3,6	;RP1=0, select bank1
  3485     02DB  082C               	movf	(___flmul@temp+1)^(0+128),w
  3486     02DC  1283               	bcf	3,5	;RP0=0, select bank0
  3487     02DD  1303               	bcf	3,6	;RP1=0, select bank0
  3488     02DE  00E2               	movwf	??___flmul+1
  3489     02DF  01E3               	clrf	??___flmul+2
  3490     02E0  01E4               	clrf	??___flmul+3
  3491     02E1  0861               	movf	??___flmul,w
  3492     02E2  1683               	bsf	3,5	;RP0=1, select bank1
  3493     02E3  1303               	bcf	3,6	;RP1=0, select bank1
  3494     02E4  07A7               	addwf	___flmul@prod^(0+128),f
  3495     02E5  1283               	bcf	3,5	;RP0=0, select bank0
  3496     02E6  1303               	bcf	3,6	;RP1=0, select bank0
  3497     02E7  0862               	movf	??___flmul+1,w
  3498     02E8  1103               	clrz
  3499     02E9  1803               	skipnc
  3500     02EA  3E01               	addlw	1
  3501     02EB  1903               	skipnz
  3502     02EC  2AF0               	goto	u3161
  3503     02ED  1683               	bsf	3,5	;RP0=1, select bank1
  3504     02EE  1303               	bcf	3,6	;RP1=0, select bank1
  3505     02EF  07A8               	addwf	(___flmul@prod+1)^(0+128),f
  3506     02F0                     u3161:
  3507     02F0  1283               	bcf	3,5	;RP0=0, select bank0
  3508     02F1  1303               	bcf	3,6	;RP1=0, select bank0
  3509     02F2  0863               	movf	??___flmul+2,w
  3510     02F3  1103               	clrz
  3511     02F4  1803               	skipnc
  3512     02F5  3E01               	addlw	1
  3513     02F6  1903               	skipnz
  3514     02F7  2AFB               	goto	u3162
  3515     02F8  1683               	bsf	3,5	;RP0=1, select bank1
  3516     02F9  1303               	bcf	3,6	;RP1=0, select bank1
  3517     02FA  07A9               	addwf	(___flmul@prod+2)^(0+128),f
  3518     02FB                     u3162:
  3519     02FB  1283               	bcf	3,5	;RP0=0, select bank0
  3520     02FC  1303               	bcf	3,6	;RP1=0, select bank0
  3521     02FD  0864               	movf	??___flmul+3,w
  3522     02FE  1103               	clrz
  3523     02FF  1803               	skipnc
  3524     0300  3E01               	addlw	1
  3525     0301  1903               	skipnz
  3526     0302  2B06               	goto	u3163
  3527     0303  1683               	bsf	3,5	;RP0=1, select bank1
  3528     0304  1303               	bcf	3,6	;RP1=0, select bank1
  3529     0305  07AA               	addwf	(___flmul@prod+3)^(0+128),f
  3530     0306                     u3163:
  3531     0306  1283               	bcf	3,5	;RP0=0, select bank0
  3532     0307  1303               	bcf	3,6	;RP1=0, select bank0
  3533     0308  1683               	bsf	3,5	;RP0=1, select bank1
  3534     0309  1303               	bcf	3,6	;RP1=0, select bank1
  3535     030A                     l2197:
  3536     030A  1283               	bcf	3,5	;RP0=0, select bank0
  3537     030B  1303               	bcf	3,6	;RP1=0, select bank0
  3538     030C  085B               	movf	___flmul@b+2,w
  3539     030D  00F3               	movwf	__Umul8_16@multiplicand
  3540     030E  085E               	movf	___flmul@a+1,w
  3541     030F  120A  158A  23D8  120A  118A  	fcall	__Umul8_16
  3542     0314  0874               	movf	?__Umul8_16+1,w
  3543     0315  1683               	bsf	3,5	;RP0=1, select bank1
  3544     0316  1303               	bcf	3,6	;RP1=0, select bank1
  3545     0317  00AC               	movwf	(___flmul@temp+1)^(0+128)
  3546     0318  0873               	movf	?__Umul8_16,w
  3547     0319  00AB               	movwf	___flmul@temp^(0+128)
  3548     031A                     l2199:
  3549     031A  082B               	movf	___flmul@temp^(0+128),w
  3550     031B  1283               	bcf	3,5	;RP0=0, select bank0
  3551     031C  1303               	bcf	3,6	;RP1=0, select bank0
  3552     031D  00E1               	movwf	??___flmul
  3553     031E  1683               	bsf	3,5	;RP0=1, select bank1
  3554     031F  1303               	bcf	3,6	;RP1=0, select bank1
  3555     0320  082C               	movf	(___flmul@temp+1)^(0+128),w
  3556     0321  1283               	bcf	3,5	;RP0=0, select bank0
  3557     0322  1303               	bcf	3,6	;RP1=0, select bank0
  3558     0323  00E2               	movwf	??___flmul+1
  3559     0324  01E3               	clrf	??___flmul+2
  3560     0325  01E4               	clrf	??___flmul+3
  3561     0326  0861               	movf	??___flmul,w
  3562     0327  1683               	bsf	3,5	;RP0=1, select bank1
  3563     0328  1303               	bcf	3,6	;RP1=0, select bank1
  3564     0329  07A7               	addwf	___flmul@prod^(0+128),f
  3565     032A  1283               	bcf	3,5	;RP0=0, select bank0
  3566     032B  1303               	bcf	3,6	;RP1=0, select bank0
  3567     032C  0862               	movf	??___flmul+1,w
  3568     032D  1103               	clrz
  3569     032E  1803               	skipnc
  3570     032F  3E01               	addlw	1
  3571     0330  1903               	skipnz
  3572     0331  2B35               	goto	u3171
  3573     0332  1683               	bsf	3,5	;RP0=1, select bank1
  3574     0333  1303               	bcf	3,6	;RP1=0, select bank1
  3575     0334  07A8               	addwf	(___flmul@prod+1)^(0+128),f
  3576     0335                     u3171:
  3577     0335  1283               	bcf	3,5	;RP0=0, select bank0
  3578     0336  1303               	bcf	3,6	;RP1=0, select bank0
  3579     0337  0863               	movf	??___flmul+2,w
  3580     0338  1103               	clrz
  3581     0339  1803               	skipnc
  3582     033A  3E01               	addlw	1
  3583     033B  1903               	skipnz
  3584     033C  2B40               	goto	u3172
  3585     033D  1683               	bsf	3,5	;RP0=1, select bank1
  3586     033E  1303               	bcf	3,6	;RP1=0, select bank1
  3587     033F  07A9               	addwf	(___flmul@prod+2)^(0+128),f
  3588     0340                     u3172:
  3589     0340  1283               	bcf	3,5	;RP0=0, select bank0
  3590     0341  1303               	bcf	3,6	;RP1=0, select bank0
  3591     0342  0864               	movf	??___flmul+3,w
  3592     0343  1103               	clrz
  3593     0344  1803               	skipnc
  3594     0345  3E01               	addlw	1
  3595     0346  1903               	skipnz
  3596     0347  2B4B               	goto	u3173
  3597     0348  1683               	bsf	3,5	;RP0=1, select bank1
  3598     0349  1303               	bcf	3,6	;RP1=0, select bank1
  3599     034A  07AA               	addwf	(___flmul@prod+3)^(0+128),f
  3600     034B                     u3173:
  3601     034B  1283               	bcf	3,5	;RP0=0, select bank0
  3602     034C  1303               	bcf	3,6	;RP1=0, select bank0
  3603     034D  1683               	bsf	3,5	;RP0=1, select bank1
  3604     034E  1303               	bcf	3,6	;RP1=0, select bank1
  3605     034F  1283               	bcf	3,5	;RP0=0, select bank0
  3606     0350  1303               	bcf	3,6	;RP1=0, select bank0
  3607     0351  085B               	movf	___flmul@b+2,w
  3608     0352  00F3               	movwf	__Umul8_16@multiplicand
  3609     0353  085F               	movf	___flmul@a+2,w
  3610     0354  120A  158A  23D8  120A  118A  	fcall	__Umul8_16
  3611     0359  0874               	movf	?__Umul8_16+1,w
  3612     035A  1683               	bsf	3,5	;RP0=1, select bank1
  3613     035B  1303               	bcf	3,6	;RP1=0, select bank1
  3614     035C  00AC               	movwf	(___flmul@temp+1)^(0+128)
  3615     035D  0873               	movf	?__Umul8_16,w
  3616     035E  00AB               	movwf	___flmul@temp^(0+128)
  3617     035F                     l2201:
  3618     035F  082B               	movf	___flmul@temp^(0+128),w
  3619     0360  1283               	bcf	3,5	;RP0=0, select bank0
  3620     0361  1303               	bcf	3,6	;RP1=0, select bank0
  3621     0362  00E1               	movwf	??___flmul
  3622     0363  1683               	bsf	3,5	;RP0=1, select bank1
  3623     0364  1303               	bcf	3,6	;RP1=0, select bank1
  3624     0365  082C               	movf	(___flmul@temp+1)^(0+128),w
  3625     0366  1283               	bcf	3,5	;RP0=0, select bank0
  3626     0367  1303               	bcf	3,6	;RP1=0, select bank0
  3627     0368  00E2               	movwf	??___flmul+1
  3628     0369  01E3               	clrf	??___flmul+2
  3629     036A  01E4               	clrf	??___flmul+3
  3630     036B  3008               	movlw	8
  3631     036C                     u3185:
  3632     036C  1003               	clrc
  3633     036D  0DE1               	rlf	??___flmul,f
  3634     036E  0DE2               	rlf	??___flmul+1,f
  3635     036F  0DE3               	rlf	??___flmul+2,f
  3636     0370  0DE4               	rlf	??___flmul+3,f
  3637     0371                     u3180:
  3638     0371  3EFF               	addlw	-1
  3639     0372  1D03               	skipz
  3640     0373  2B6C               	goto	u3185
  3641     0374  0861               	movf	??___flmul,w
  3642     0375  1683               	bsf	3,5	;RP0=1, select bank1
  3643     0376  1303               	bcf	3,6	;RP1=0, select bank1
  3644     0377  07A7               	addwf	___flmul@prod^(0+128),f
  3645     0378  1283               	bcf	3,5	;RP0=0, select bank0
  3646     0379  1303               	bcf	3,6	;RP1=0, select bank0
  3647     037A  0862               	movf	??___flmul+1,w
  3648     037B  1103               	clrz
  3649     037C  1803               	skipnc
  3650     037D  3E01               	addlw	1
  3651     037E  1903               	skipnz
  3652     037F  2B83               	goto	u3191
  3653     0380  1683               	bsf	3,5	;RP0=1, select bank1
  3654     0381  1303               	bcf	3,6	;RP1=0, select bank1
  3655     0382  07A8               	addwf	(___flmul@prod+1)^(0+128),f
  3656     0383                     u3191:
  3657     0383  1283               	bcf	3,5	;RP0=0, select bank0
  3658     0384  1303               	bcf	3,6	;RP1=0, select bank0
  3659     0385  0863               	movf	??___flmul+2,w
  3660     0386  1103               	clrz
  3661     0387  1803               	skipnc
  3662     0388  3E01               	addlw	1
  3663     0389  1903               	skipnz
  3664     038A  2B8E               	goto	u3192
  3665     038B  1683               	bsf	3,5	;RP0=1, select bank1
  3666     038C  1303               	bcf	3,6	;RP1=0, select bank1
  3667     038D  07A9               	addwf	(___flmul@prod+2)^(0+128),f
  3668     038E                     u3192:
  3669     038E  1283               	bcf	3,5	;RP0=0, select bank0
  3670     038F  1303               	bcf	3,6	;RP1=0, select bank0
  3671     0390  0864               	movf	??___flmul+3,w
  3672     0391  1103               	clrz
  3673     0392  1803               	skipnc
  3674     0393  3E01               	addlw	1
  3675     0394  1903               	skipnz
  3676     0395  2B99               	goto	u3193
  3677     0396  1683               	bsf	3,5	;RP0=1, select bank1
  3678     0397  1303               	bcf	3,6	;RP1=0, select bank1
  3679     0398  07AA               	addwf	(___flmul@prod+3)^(0+128),f
  3680     0399                     u3193:
  3681     0399  1283               	bcf	3,5	;RP0=0, select bank0
  3682     039A  1303               	bcf	3,6	;RP1=0, select bank0
  3683     039B  1683               	bsf	3,5	;RP0=1, select bank1
  3684     039C  1303               	bcf	3,6	;RP1=0, select bank1
  3685     039D                     l2203:
  3686     039D  0822               	movf	___flmul@grs^(0+128),w
  3687     039E  1283               	bcf	3,5	;RP0=0, select bank0
  3688     039F  1303               	bcf	3,6	;RP1=0, select bank0
  3689     03A0  00E1               	movwf	??___flmul
  3690     03A1  1683               	bsf	3,5	;RP0=1, select bank1
  3691     03A2  1303               	bcf	3,6	;RP1=0, select bank1
  3692     03A3  0823               	movf	(___flmul@grs+1)^(0+128),w
  3693     03A4  1283               	bcf	3,5	;RP0=0, select bank0
  3694     03A5  1303               	bcf	3,6	;RP1=0, select bank0
  3695     03A6  00E2               	movwf	??___flmul+1
  3696     03A7  1683               	bsf	3,5	;RP0=1, select bank1
  3697     03A8  1303               	bcf	3,6	;RP1=0, select bank1
  3698     03A9  0824               	movf	(___flmul@grs+2)^(0+128),w
  3699     03AA  1283               	bcf	3,5	;RP0=0, select bank0
  3700     03AB  1303               	bcf	3,6	;RP1=0, select bank0
  3701     03AC  00E3               	movwf	??___flmul+2
  3702     03AD  1683               	bsf	3,5	;RP0=1, select bank1
  3703     03AE  1303               	bcf	3,6	;RP1=0, select bank1
  3704     03AF  0825               	movf	(___flmul@grs+3)^(0+128),w
  3705     03B0  1283               	bcf	3,5	;RP0=0, select bank0
  3706     03B1  1303               	bcf	3,6	;RP1=0, select bank0
  3707     03B2  00E4               	movwf	??___flmul+3
  3708     03B3  3018               	movlw	24
  3709     03B4                     u3205:
  3710     03B4  1003               	clrc
  3711     03B5  0CE4               	rrf	??___flmul+3,f
  3712     03B6  0CE3               	rrf	??___flmul+2,f
  3713     03B7  0CE2               	rrf	??___flmul+1,f
  3714     03B8  0CE1               	rrf	??___flmul,f
  3715     03B9                     u3200:
  3716     03B9  3EFF               	addlw	-1
  3717     03BA  1D03               	skipz
  3718     03BB  2BB4               	goto	u3205
  3719     03BC  0861               	movf	??___flmul,w
  3720     03BD  1683               	bsf	3,5	;RP0=1, select bank1
  3721     03BE  1303               	bcf	3,6	;RP1=0, select bank1
  3722     03BF  07A7               	addwf	___flmul@prod^(0+128),f
  3723     03C0  1283               	bcf	3,5	;RP0=0, select bank0
  3724     03C1  1303               	bcf	3,6	;RP1=0, select bank0
  3725     03C2  0862               	movf	??___flmul+1,w
  3726     03C3  1103               	clrz
  3727     03C4  1803               	skipnc
  3728     03C5  3E01               	addlw	1
  3729     03C6  1903               	skipnz
  3730     03C7  2BCB               	goto	u3211
  3731     03C8  1683               	bsf	3,5	;RP0=1, select bank1
  3732     03C9  1303               	bcf	3,6	;RP1=0, select bank1
  3733     03CA  07A8               	addwf	(___flmul@prod+1)^(0+128),f
  3734     03CB                     u3211:
  3735     03CB  1283               	bcf	3,5	;RP0=0, select bank0
  3736     03CC  1303               	bcf	3,6	;RP1=0, select bank0
  3737     03CD  0863               	movf	??___flmul+2,w
  3738     03CE  1103               	clrz
  3739     03CF  1803               	skipnc
  3740     03D0  3E01               	addlw	1
  3741     03D1  1903               	skipnz
  3742     03D2  2BD6               	goto	u3212
  3743     03D3  1683               	bsf	3,5	;RP0=1, select bank1
  3744     03D4  1303               	bcf	3,6	;RP1=0, select bank1
  3745     03D5  07A9               	addwf	(___flmul@prod+2)^(0+128),f
  3746     03D6                     u3212:
  3747     03D6  1283               	bcf	3,5	;RP0=0, select bank0
  3748     03D7  1303               	bcf	3,6	;RP1=0, select bank0
  3749     03D8  0864               	movf	??___flmul+3,w
  3750     03D9  1103               	clrz
  3751     03DA  1803               	skipnc
  3752     03DB  3E01               	addlw	1
  3753     03DC  1903               	skipnz
  3754     03DD  2BE1               	goto	u3213
  3755     03DE  1683               	bsf	3,5	;RP0=1, select bank1
  3756     03DF  1303               	bcf	3,6	;RP1=0, select bank1
  3757     03E0  07AA               	addwf	(___flmul@prod+3)^(0+128),f
  3758     03E1                     u3213:
  3759     03E1  1283               	bcf	3,5	;RP0=0, select bank0
  3760     03E2  1303               	bcf	3,6	;RP1=0, select bank0
  3761     03E3  1683               	bsf	3,5	;RP0=1, select bank1
  3762     03E4  1303               	bcf	3,6	;RP1=0, select bank1
  3763     03E5                     l2205:
  3764     03E5  3008               	movlw	8
  3765     03E6  1283               	bcf	3,5	;RP0=0, select bank0
  3766     03E7  1303               	bcf	3,6	;RP1=0, select bank0
  3767     03E8  00E1               	movwf	??___flmul
  3768     03E9                     u3225:
  3769     03E9  1003               	clrc
  3770     03EA  1683               	bsf	3,5	;RP0=1, select bank1
  3771     03EB  1303               	bcf	3,6	;RP1=0, select bank1
  3772     03EC  0DA2               	rlf	___flmul@grs^(0+128),f
  3773     03ED  0DA3               	rlf	(___flmul@grs+1)^(0+128),f
  3774     03EE  0DA4               	rlf	(___flmul@grs+2)^(0+128),f
  3775     03EF  0DA5               	rlf	(___flmul@grs+3)^(0+128),f
  3776     03F0  1283               	bcf	3,5	;RP0=0, select bank0
  3777     03F1  1303               	bcf	3,6	;RP1=0, select bank0
  3778     03F2  0BE1               	decfsz	??___flmul,f
  3779     03F3  2BE9               	goto	u3225
  3780     03F4                     l2207:
  3781     03F4  1683               	bsf	3,5	;RP0=1, select bank1
  3782     03F5  1303               	bcf	3,6	;RP1=0, select bank1
  3783     03F6  0826               	movf	___flmul@bexp^(0+128),w
  3784     03F7  0721               	addwf	___flmul@aexp^(0+128),w
  3785     03F8  1283               	bcf	3,5	;RP0=0, select bank0
  3786     03F9  1303               	bcf	3,6	;RP1=0, select bank0
  3787     03FA  00E1               	movwf	??___flmul
  3788     03FB  01E2               	clrf	??___flmul+1
  3789     03FC  0DE2               	rlf	??___flmul+1,f
  3790     03FD  0861               	movf	??___flmul,w
  3791     03FE  3E82               	addlw	130
  3792     03FF  1683               	bsf	3,5	;RP0=1, select bank1
  3793     0400  1303               	bcf	3,6	;RP1=0, select bank1
  3794     0401  00AB               	movwf	___flmul@temp^(0+128)
  3795     0402  1283               	bcf	3,5	;RP0=0, select bank0
  3796     0403  1303               	bcf	3,6	;RP1=0, select bank0
  3797     0404  0862               	movf	??___flmul+1,w
  3798     0405  1803               	skipnc
  3799     0406  3E01               	addlw	1
  3800     0407  3EFF               	addlw	255
  3801     0408  1683               	bsf	3,5	;RP0=1, select bank1
  3802     0409  1303               	bcf	3,6	;RP1=0, select bank1
  3803     040A  00AC               	movwf	(___flmul@temp+1)^(0+128)
  3804     040B  2C39               	goto	l2219
  3805     040C                     l2209:
  3806     040C  3001               	movlw	1
  3807     040D  1283               	bcf	3,5	;RP0=0, select bank0
  3808     040E  1303               	bcf	3,6	;RP1=0, select bank0
  3809     040F  00E1               	movwf	??___flmul
  3810     0410                     u3235:
  3811     0410  1003               	clrc
  3812     0411  1683               	bsf	3,5	;RP0=1, select bank1
  3813     0412  1303               	bcf	3,6	;RP1=0, select bank1
  3814     0413  0DA7               	rlf	___flmul@prod^(0+128),f
  3815     0414  0DA8               	rlf	(___flmul@prod+1)^(0+128),f
  3816     0415  0DA9               	rlf	(___flmul@prod+2)^(0+128),f
  3817     0416  0DAA               	rlf	(___flmul@prod+3)^(0+128),f
  3818     0417  1283               	bcf	3,5	;RP0=0, select bank0
  3819     0418  1303               	bcf	3,6	;RP1=0, select bank0
  3820     0419  0BE1               	decfsz	??___flmul,f
  3821     041A  2C10               	goto	u3235
  3822     041B                     l2211:
  3823     041B  1683               	bsf	3,5	;RP0=1, select bank1
  3824     041C  1303               	bcf	3,6	;RP1=0, select bank1
  3825     041D  1FA5               	btfss	(___flmul@grs+3)^(0+128),7
  3826     041E  2C20               	goto	u3241
  3827     041F  2C21               	goto	u3240
  3828     0420                     u3241:
  3829     0420  2C22               	goto	l2215
  3830     0421                     u3240:
  3831     0421                     l2213:
  3832     0421  1427               	bsf	___flmul@prod^(0+128),0
  3833     0422                     l2215:
  3834     0422  3001               	movlw	1
  3835     0423  1283               	bcf	3,5	;RP0=0, select bank0
  3836     0424  1303               	bcf	3,6	;RP1=0, select bank0
  3837     0425  00E1               	movwf	??___flmul
  3838     0426                     u3255:
  3839     0426  1003               	clrc
  3840     0427  1683               	bsf	3,5	;RP0=1, select bank1
  3841     0428  1303               	bcf	3,6	;RP1=0, select bank1
  3842     0429  0DA2               	rlf	___flmul@grs^(0+128),f
  3843     042A  0DA3               	rlf	(___flmul@grs+1)^(0+128),f
  3844     042B  0DA4               	rlf	(___flmul@grs+2)^(0+128),f
  3845     042C  0DA5               	rlf	(___flmul@grs+3)^(0+128),f
  3846     042D  1283               	bcf	3,5	;RP0=0, select bank0
  3847     042E  1303               	bcf	3,6	;RP1=0, select bank0
  3848     042F  0BE1               	decfsz	??___flmul,f
  3849     0430  2C26               	goto	u3255
  3850     0431                     l2217:
  3851     0431  30FF               	movlw	255
  3852     0432  1683               	bsf	3,5	;RP0=1, select bank1
  3853     0433  1303               	bcf	3,6	;RP1=0, select bank1
  3854     0434  07AB               	addwf	___flmul@temp^(0+128),f
  3855     0435  1803               	skipnc
  3856     0436  0AAC               	incf	(___flmul@temp+1)^(0+128),f
  3857     0437  30FF               	movlw	255
  3858     0438  07AC               	addwf	(___flmul@temp+1)^(0+128),f
  3859     0439                     l2219:
  3860     0439  1FA9               	btfss	(___flmul@prod+2)^(0+128),7
  3861     043A  2C3C               	goto	u3261
  3862     043B  2C3D               	goto	u3260
  3863     043C                     u3261:
  3864     043C  2C0C               	goto	l2209
  3865     043D                     u3260:
  3866     043D                     l2221:
  3867     043D  01A1               	clrf	___flmul@aexp^(0+128)
  3868     043E                     l2223:
  3869     043E  1FA5               	btfss	(___flmul@grs+3)^(0+128),7
  3870     043F  2C41               	goto	u3271
  3871     0440  2C42               	goto	u3270
  3872     0441                     u3271:
  3873     0441  2C70               	goto	l2231
  3874     0442                     u3270:
  3875     0442                     l2225:
  3876     0442  30FF               	movlw	255
  3877     0443  0522               	andwf	___flmul@grs^(0+128),w
  3878     0444  1283               	bcf	3,5	;RP0=0, select bank0
  3879     0445  1303               	bcf	3,6	;RP1=0, select bank0
  3880     0446  00E1               	movwf	??___flmul
  3881     0447  30FF               	movlw	255
  3882     0448  1683               	bsf	3,5	;RP0=1, select bank1
  3883     0449  1303               	bcf	3,6	;RP1=0, select bank1
  3884     044A  0523               	andwf	(___flmul@grs+1)^(0+128),w
  3885     044B  1283               	bcf	3,5	;RP0=0, select bank0
  3886     044C  1303               	bcf	3,6	;RP1=0, select bank0
  3887     044D  00E2               	movwf	??___flmul+1
  3888     044E  30FF               	movlw	255
  3889     044F  1683               	bsf	3,5	;RP0=1, select bank1
  3890     0450  1303               	bcf	3,6	;RP1=0, select bank1
  3891     0451  0524               	andwf	(___flmul@grs+2)^(0+128),w
  3892     0452  1283               	bcf	3,5	;RP0=0, select bank0
  3893     0453  1303               	bcf	3,6	;RP1=0, select bank0
  3894     0454  00E3               	movwf	??___flmul+2
  3895     0455  307F               	movlw	127
  3896     0456  1683               	bsf	3,5	;RP0=1, select bank1
  3897     0457  1303               	bcf	3,6	;RP1=0, select bank1
  3898     0458  0525               	andwf	(___flmul@grs+3)^(0+128),w
  3899     0459  1283               	bcf	3,5	;RP0=0, select bank0
  3900     045A  1303               	bcf	3,6	;RP1=0, select bank0
  3901     045B  00E4               	movwf	??___flmul+3
  3902     045C  0864               	movf	??___flmul+3,w
  3903     045D  0463               	iorwf	??___flmul+2,w
  3904     045E  0462               	iorwf	??___flmul+1,w
  3905     045F  0461               	iorwf	??___flmul,w
  3906     0460  1903               	skipnz
  3907     0461  2C63               	goto	u3281
  3908     0462  2C64               	goto	u3280
  3909     0463                     u3281:
  3910     0463  2C69               	goto	l718
  3911     0464                     u3280:
  3912     0464                     l2227:
  3913     0464  1683               	bsf	3,5	;RP0=1, select bank1
  3914     0465  1303               	bcf	3,6	;RP1=0, select bank1
  3915     0466  01A1               	clrf	___flmul@aexp^(0+128)
  3916     0467  0AA1               	incf	___flmul@aexp^(0+128),f
  3917     0468  2C70               	goto	l2231
  3918     0469                     l718:
  3919     0469  1683               	bsf	3,5	;RP0=1, select bank1
  3920     046A  1303               	bcf	3,6	;RP1=0, select bank1
  3921     046B  1C27               	btfss	___flmul@prod^(0+128),0
  3922     046C  2C6E               	goto	u3291
  3923     046D  2C6F               	goto	u3290
  3924     046E                     u3291:
  3925     046E  2C70               	goto	l2231
  3926     046F                     u3290:
  3927     046F  2C64               	goto	l2227
  3928     0470                     l2231:
  3929     0470  0821               	movf	___flmul@aexp^(0+128),w
  3930     0471  1903               	btfsc	3,2
  3931     0472  2C74               	goto	u3301
  3932     0473  2C75               	goto	u3300
  3933     0474                     u3301:
  3934     0474  2CC2               	goto	l2241
  3935     0475                     u3300:
  3936     0475                     l2233:
  3937     0475  3001               	movlw	1
  3938     0476  07A7               	addwf	___flmul@prod^(0+128),f
  3939     0477  3000               	movlw	0
  3940     0478  1803               	skipnc
  3941     0479  3001               	movlw	1
  3942     047A  07A8               	addwf	(___flmul@prod+1)^(0+128),f
  3943     047B  3000               	movlw	0
  3944     047C  1803               	skipnc
  3945     047D  3001               	movlw	1
  3946     047E  07A9               	addwf	(___flmul@prod+2)^(0+128),f
  3947     047F  3000               	movlw	0
  3948     0480  1803               	skipnc
  3949     0481  3001               	movlw	1
  3950     0482  07AA               	addwf	(___flmul@prod+3)^(0+128),f
  3951     0483                     l2235:
  3952     0483  1C2A               	btfss	(___flmul@prod+3)^(0+128),0
  3953     0484  2C86               	goto	u3311
  3954     0485  2C87               	goto	u3310
  3955     0486                     u3311:
  3956     0486  2CC2               	goto	l2241
  3957     0487                     u3310:
  3958     0487                     l2237:
  3959     0487  0827               	movf	___flmul@prod^(0+128),w
  3960     0488  1283               	bcf	3,5	;RP0=0, select bank0
  3961     0489  1303               	bcf	3,6	;RP1=0, select bank0
  3962     048A  00E1               	movwf	??___flmul
  3963     048B  1683               	bsf	3,5	;RP0=1, select bank1
  3964     048C  1303               	bcf	3,6	;RP1=0, select bank1
  3965     048D  0828               	movf	(___flmul@prod+1)^(0+128),w
  3966     048E  1283               	bcf	3,5	;RP0=0, select bank0
  3967     048F  1303               	bcf	3,6	;RP1=0, select bank0
  3968     0490  00E2               	movwf	??___flmul+1
  3969     0491  1683               	bsf	3,5	;RP0=1, select bank1
  3970     0492  1303               	bcf	3,6	;RP1=0, select bank1
  3971     0493  0829               	movf	(___flmul@prod+2)^(0+128),w
  3972     0494  1283               	bcf	3,5	;RP0=0, select bank0
  3973     0495  1303               	bcf	3,6	;RP1=0, select bank0
  3974     0496  00E3               	movwf	??___flmul+2
  3975     0497  1683               	bsf	3,5	;RP0=1, select bank1
  3976     0498  1303               	bcf	3,6	;RP1=0, select bank1
  3977     0499  082A               	movf	(___flmul@prod+3)^(0+128),w
  3978     049A  1283               	bcf	3,5	;RP0=0, select bank0
  3979     049B  1303               	bcf	3,6	;RP1=0, select bank0
  3980     049C  00E4               	movwf	??___flmul+3
  3981     049D  3001               	movlw	1
  3982     049E  00E5               	movwf	??___flmul+4
  3983     049F                     u3325:
  3984     049F  0D64               	rlf	??___flmul+3,w
  3985     04A0  0CE4               	rrf	??___flmul+3,f
  3986     04A1  0CE3               	rrf	??___flmul+2,f
  3987     04A2  0CE2               	rrf	??___flmul+1,f
  3988     04A3  0CE1               	rrf	??___flmul,f
  3989     04A4                     u3320:
  3990     04A4  0BE5               	decfsz	??___flmul+4,f
  3991     04A5  2C9F               	goto	u3325
  3992     04A6  0864               	movf	??___flmul+3,w
  3993     04A7  1683               	bsf	3,5	;RP0=1, select bank1
  3994     04A8  1303               	bcf	3,6	;RP1=0, select bank1
  3995     04A9  00AA               	movwf	(___flmul@prod+3)^(0+128)
  3996     04AA  1283               	bcf	3,5	;RP0=0, select bank0
  3997     04AB  1303               	bcf	3,6	;RP1=0, select bank0
  3998     04AC  0863               	movf	??___flmul+2,w
  3999     04AD  1683               	bsf	3,5	;RP0=1, select bank1
  4000     04AE  1303               	bcf	3,6	;RP1=0, select bank1
  4001     04AF  00A9               	movwf	(___flmul@prod+2)^(0+128)
  4002     04B0  1283               	bcf	3,5	;RP0=0, select bank0
  4003     04B1  1303               	bcf	3,6	;RP1=0, select bank0
  4004     04B2  0862               	movf	??___flmul+1,w
  4005     04B3  1683               	bsf	3,5	;RP0=1, select bank1
  4006     04B4  1303               	bcf	3,6	;RP1=0, select bank1
  4007     04B5  00A8               	movwf	(___flmul@prod+1)^(0+128)
  4008     04B6  1283               	bcf	3,5	;RP0=0, select bank0
  4009     04B7  1303               	bcf	3,6	;RP1=0, select bank0
  4010     04B8  0861               	movf	??___flmul,w
  4011     04B9  1683               	bsf	3,5	;RP0=1, select bank1
  4012     04BA  1303               	bcf	3,6	;RP1=0, select bank1
  4013     04BB  00A7               	movwf	___flmul@prod^(0+128)
  4014     04BC                     l2239:
  4015     04BC  3001               	movlw	1
  4016     04BD  07AB               	addwf	___flmul@temp^(0+128),f
  4017     04BE  1803               	skipnc
  4018     04BF  0AAC               	incf	(___flmul@temp+1)^(0+128),f
  4019     04C0  3000               	movlw	0
  4020     04C1  07AC               	addwf	(___flmul@temp+1)^(0+128),f
  4021     04C2                     l2241:
  4022     04C2  082C               	movf	(___flmul@temp+1)^(0+128),w
  4023     04C3  3A80               	xorlw	128
  4024     04C4  00FF               	movwf	btemp+1
  4025     04C5  3080               	movlw	128
  4026     04C6  027F               	subwf	btemp+1,w
  4027     04C7  1D03               	skipz
  4028     04C8  2CCB               	goto	u3335
  4029     04C9  30FF               	movlw	255
  4030     04CA  022B               	subwf	___flmul@temp^(0+128),w
  4031     04CB                     u3335:
  4032     04CB  1C03               	skipc
  4033     04CC  2CCE               	goto	u3331
  4034     04CD  2CCF               	goto	u3330
  4035     04CE                     u3331:
  4036     04CE  2CDA               	goto	l2245
  4037     04CF                     u3330:
  4038     04CF                     l2243:
  4039     04CF  307F               	movlw	127
  4040     04D0  1683               	bsf	3,5	;RP0=1, select bank1
  4041     04D1  1303               	bcf	3,6	;RP1=0, select bank1
  4042     04D2  00AA               	movwf	(___flmul@prod+3)^(0+128)
  4043     04D3  3080               	movlw	128
  4044     04D4  00A9               	movwf	(___flmul@prod+2)^(0+128)
  4045     04D5  3000               	movlw	0
  4046     04D6  00A8               	movwf	(___flmul@prod+1)^(0+128)
  4047     04D7  3000               	movlw	0
  4048     04D8  00A7               	movwf	___flmul@prod^(0+128)
  4049     04D9  2D0F               	goto	l724
  4050     04DA                     l2245:
  4051     04DA  1683               	bsf	3,5	;RP0=1, select bank1
  4052     04DB  1303               	bcf	3,6	;RP1=0, select bank1
  4053     04DC  082C               	movf	(___flmul@temp+1)^(0+128),w
  4054     04DD  3A80               	xorlw	128
  4055     04DE  00FF               	movwf	btemp+1
  4056     04DF  3080               	movlw	128
  4057     04E0  027F               	subwf	btemp+1,w
  4058     04E1  1D03               	skipz
  4059     04E2  2CE5               	goto	u3345
  4060     04E3  3001               	movlw	1
  4061     04E4  022B               	subwf	___flmul@temp^(0+128),w
  4062     04E5                     u3345:
  4063     04E5  1803               	skipnc
  4064     04E6  2CE8               	goto	u3341
  4065     04E7  2CE9               	goto	u3340
  4066     04E8                     u3341:
  4067     04E8  2CF5               	goto	l2251
  4068     04E9                     u3340:
  4069     04E9                     l2247:
  4070     04E9  3000               	movlw	0
  4071     04EA  1683               	bsf	3,5	;RP0=1, select bank1
  4072     04EB  1303               	bcf	3,6	;RP1=0, select bank1
  4073     04EC  00AA               	movwf	(___flmul@prod+3)^(0+128)
  4074     04ED  3000               	movlw	0
  4075     04EE  00A9               	movwf	(___flmul@prod+2)^(0+128)
  4076     04EF  3000               	movlw	0
  4077     04F0  00A8               	movwf	(___flmul@prod+1)^(0+128)
  4078     04F1  3000               	movlw	0
  4079     04F2  00A7               	movwf	___flmul@prod^(0+128)
  4080     04F3                     l2249:
  4081     04F3  01A0               	clrf	___flmul@sign^(0+128)
  4082     04F4  2D0F               	goto	l724
  4083     04F5                     l2251:
  4084     04F5  1683               	bsf	3,5	;RP0=1, select bank1
  4085     04F6  1303               	bcf	3,6	;RP1=0, select bank1
  4086     04F7  082B               	movf	___flmul@temp^(0+128),w
  4087     04F8  00A6               	movwf	___flmul@bexp^(0+128)
  4088     04F9  30FF               	movlw	255
  4089     04FA  05A7               	andwf	___flmul@prod^(0+128),f
  4090     04FB  30FF               	movlw	255
  4091     04FC  05A8               	andwf	(___flmul@prod+1)^(0+128),f
  4092     04FD  307F               	movlw	127
  4093     04FE  05A9               	andwf	(___flmul@prod+2)^(0+128),f
  4094     04FF  3000               	movlw	0
  4095     0500  05AA               	andwf	(___flmul@prod+3)^(0+128),f
  4096     0501                     l2253:
  4097     0501  1C26               	btfss	___flmul@bexp^(0+128),0
  4098     0502  2D04               	goto	u3351
  4099     0503  2D05               	goto	u3350
  4100     0504                     u3351:
  4101     0504  2D06               	goto	l2257
  4102     0505                     u3350:
  4103     0505                     l2255:
  4104     0505  17A9               	bsf	(___flmul@prod^(0+128)+2),7
  4105     0506                     l2257:
  4106     0506  0826               	movf	___flmul@bexp^(0+128),w
  4107     0507  1283               	bcf	3,5	;RP0=0, select bank0
  4108     0508  1303               	bcf	3,6	;RP1=0, select bank0
  4109     0509  00E1               	movwf	??___flmul
  4110     050A  1003               	clrc
  4111     050B  0C61               	rrf	??___flmul,w
  4112     050C  1683               	bsf	3,5	;RP0=1, select bank1
  4113     050D  1303               	bcf	3,6	;RP1=0, select bank1
  4114     050E  00AA               	movwf	(___flmul@prod^(0+128)+3)
  4115     050F                     l724:
  4116     050F  0820               	movf	___flmul@sign^(0+128),w
  4117     0510  1283               	bcf	3,5	;RP0=0, select bank0
  4118     0511  1303               	bcf	3,6	;RP1=0, select bank0
  4119     0512  00E1               	movwf	??___flmul
  4120     0513  0861               	movf	??___flmul,w
  4121     0514  1683               	bsf	3,5	;RP0=1, select bank1
  4122     0515  1303               	bcf	3,6	;RP1=0, select bank1
  4123     0516  04AA               	iorwf	(___flmul@prod^(0+128)+3),f
  4124     0517                     l2259:
  4125     0517  082A               	movf	(___flmul@prod+3)^(0+128),w
  4126     0518  1283               	bcf	3,5	;RP0=0, select bank0
  4127     0519  1303               	bcf	3,6	;RP1=0, select bank0
  4128     051A  00DC               	movwf	?___flmul+3
  4129     051B  1683               	bsf	3,5	;RP0=1, select bank1
  4130     051C  1303               	bcf	3,6	;RP1=0, select bank1
  4131     051D  0829               	movf	(___flmul@prod+2)^(0+128),w
  4132     051E  1283               	bcf	3,5	;RP0=0, select bank0
  4133     051F  1303               	bcf	3,6	;RP1=0, select bank0
  4134     0520  00DB               	movwf	?___flmul+2
  4135     0521  1683               	bsf	3,5	;RP0=1, select bank1
  4136     0522  1303               	bcf	3,6	;RP1=0, select bank1
  4137     0523  0828               	movf	(___flmul@prod+1)^(0+128),w
  4138     0524  1283               	bcf	3,5	;RP0=0, select bank0
  4139     0525  1303               	bcf	3,6	;RP1=0, select bank0
  4140     0526  00DA               	movwf	?___flmul+1
  4141     0527  1683               	bsf	3,5	;RP0=1, select bank1
  4142     0528  1303               	bcf	3,6	;RP1=0, select bank1
  4143     0529  0827               	movf	___flmul@prod^(0+128),w
  4144     052A  1283               	bcf	3,5	;RP0=0, select bank0
  4145     052B  1303               	bcf	3,6	;RP1=0, select bank0
  4146     052C  00D9               	movwf	?___flmul
  4147     052D                     l712:
  4148     052D  0008               	return
  4149     052E                     __end_of___flmul:
  4150                           
  4151                           	psect	text12
  4152     0BD8                     __ptext12:	
  4153 ;; *************** function __Umul8_16 *****************
  4154 ;; Defined at:
  4155 ;;		line 4 in file "C:\Program Files\Microchip\xc8\v2.40\pic\sources\c90\common\Umul8_16.c"
  4156 ;; Parameters:    Size  Location     Type
  4157 ;;  multiplier      1    wreg     unsigned char 
  4158 ;;  multiplicand    1    3[COMMON] unsigned char 
  4159 ;; Auto vars:     Size  Location     Type
  4160 ;;  multiplier      1    4[BANK0 ] unsigned char 
  4161 ;;  word_mpld       2    2[BANK0 ] unsigned int 
  4162 ;;  product         2    0[BANK0 ] unsigned int 
  4163 ;; Return value:  Size  Location     Type
  4164 ;;                  2    3[COMMON] unsigned int 
  4165 ;; Registers used:
  4166 ;;		wreg, status,2, status,0
  4167 ;; Tracked objects:
  4168 ;;		On entry : 0/0
  4169 ;;		On exit  : 0/0
  4170 ;;		Unchanged: 0/0
  4171 ;; Data sizes:     COMMON   BANK0   BANK1   BANK3   BANK2
  4172 ;;      Params:         2       0       0       0       0
  4173 ;;      Locals:         0       5       0       0       0
  4174 ;;      Temps:          2       0       0       0       0
  4175 ;;      Totals:         4       5       0       0       0
  4176 ;;Total ram usage:        9 bytes
  4177 ;; Hardware stack levels used: 1
  4178 ;; Hardware stack levels required when called: 1
  4179 ;; This function calls:
  4180 ;;		Nothing
  4181 ;; This function is called by:
  4182 ;;		___flmul
  4183 ;; This function uses a non-reentrant model
  4184 ;;
  4185                           
  4186     0BD8                     __Umul8_16:	
  4187                           ;psect for function __Umul8_16
  4188                           
  4189                           
  4190                           ;incstack = 0
  4191                           ; Regs used in __Umul8_16: [wreg+status,2+status,0]
  4192                           ;__Umul8_16@multiplier stored from wreg
  4193     0BD8  1283               	bcf	3,5	;RP0=0, select bank0
  4194     0BD9  1303               	bcf	3,6	;RP1=0, select bank0
  4195     0BDA  00A4               	movwf	__Umul8_16@multiplier
  4196     0BDB                     l2069:
  4197     0BDB  01A0               	clrf	__Umul8_16@product
  4198     0BDC  01A1               	clrf	__Umul8_16@product+1
  4199     0BDD                     l2071:
  4200     0BDD  0873               	movf	__Umul8_16@multiplicand,w
  4201     0BDE  00F5               	movwf	??__Umul8_16
  4202     0BDF  01F6               	clrf	??__Umul8_16+1
  4203     0BE0  0875               	movf	??__Umul8_16,w
  4204     0BE1  00A2               	movwf	__Umul8_16@word_mpld
  4205     0BE2  0876               	movf	??__Umul8_16+1,w
  4206     0BE3  00A3               	movwf	__Umul8_16@word_mpld+1
  4207     0BE4                     l2073:
  4208     0BE4  1C24               	btfss	__Umul8_16@multiplier,0
  4209     0BE5  2BE7               	goto	u2851
  4210     0BE6  2BE8               	goto	u2850
  4211     0BE7                     u2851:
  4212     0BE7  2BEE               	goto	l731
  4213     0BE8                     u2850:
  4214     0BE8                     l2075:
  4215     0BE8  0822               	movf	__Umul8_16@word_mpld,w
  4216     0BE9  07A0               	addwf	__Umul8_16@product,f
  4217     0BEA  1803               	skipnc
  4218     0BEB  0AA1               	incf	__Umul8_16@product+1,f
  4219     0BEC  0823               	movf	__Umul8_16@word_mpld+1,w
  4220     0BED  07A1               	addwf	__Umul8_16@product+1,f
  4221     0BEE                     l731:
  4222     0BEE  3001               	movlw	1
  4223     0BEF                     u2865:
  4224     0BEF  1003               	clrc
  4225     0BF0  0DA2               	rlf	__Umul8_16@word_mpld,f
  4226     0BF1  0DA3               	rlf	__Umul8_16@word_mpld+1,f
  4227     0BF2  3EFF               	addlw	-1
  4228     0BF3  1D03               	skipz
  4229     0BF4  2BEF               	goto	u2865
  4230     0BF5  1003               	clrc
  4231     0BF6  0CA4               	rrf	__Umul8_16@multiplier,f
  4232     0BF7                     l2077:
  4233     0BF7  0824               	movf	__Umul8_16@multiplier,w
  4234     0BF8  1D03               	btfss	3,2
  4235     0BF9  2BFB               	goto	u2871
  4236     0BFA  2BFC               	goto	u2870
  4237     0BFB                     u2871:
  4238     0BFB  2BE4               	goto	l2073
  4239     0BFC                     u2870:
  4240     0BFC                     l2079:
  4241     0BFC  0821               	movf	__Umul8_16@product+1,w
  4242     0BFD  00F4               	movwf	?__Umul8_16+1
  4243     0BFE  0820               	movf	__Umul8_16@product,w
  4244     0BFF  00F3               	movwf	?__Umul8_16
  4245     0C00                     l733:
  4246     0C00  0008               	return
  4247     0C01                     __end_of__Umul8_16:
  4248                           
  4249                           	psect	text13
  4250     052E                     __ptext13:	
  4251 ;; *************** function ___fldiv *****************
  4252 ;; Defined at:
  4253 ;;		line 8 in file "C:\Program Files\Microchip\xc8\v2.40\pic\sources\c90\common\sprcdiv.c"
  4254 ;; Parameters:    Size  Location     Type
  4255 ;;  a               4   31[BANK0 ] unsigned int 
  4256 ;;  b               4   35[BANK0 ] unsigned int 
  4257 ;; Auto vars:     Size  Location     Type
  4258 ;;  grs             4   51[BANK0 ] unsigned long 
  4259 ;;  rem             4   44[BANK0 ] unsigned long 
  4260 ;;  new_exp         2   49[BANK0 ] int 
  4261 ;;  aexp            1   56[BANK0 ] unsigned char 
  4262 ;;  bexp            1   55[BANK0 ] unsigned char 
  4263 ;;  sign            1   48[BANK0 ] unsigned char 
  4264 ;; Return value:  Size  Location     Type
  4265 ;;                  4   31[BANK0 ] unsigned char 
  4266 ;; Registers used:
  4267 ;;		wreg, status,2, status,0, btemp+1
  4268 ;; Tracked objects:
  4269 ;;		On entry : 0/0
  4270 ;;		On exit  : 0/0
  4271 ;;		Unchanged: 0/0
  4272 ;; Data sizes:     COMMON   BANK0   BANK1   BANK3   BANK2
  4273 ;;      Params:         0       8       0       0       0
  4274 ;;      Locals:         0      13       0       0       0
  4275 ;;      Temps:          0       5       0       0       0
  4276 ;;      Totals:         0      26       0       0       0
  4277 ;;Total ram usage:       26 bytes
  4278 ;; Hardware stack levels used: 1
  4279 ;; Hardware stack levels required when called: 1
  4280 ;; This function calls:
  4281 ;;		Nothing
  4282 ;; This function is called by:
  4283 ;;		_applyPWMDutyCycle
  4284 ;; This function uses a non-reentrant model
  4285 ;;
  4286                           
  4287     052E                     ___fldiv:	
  4288                           ;psect for function ___fldiv
  4289                           
  4290     052E                     l1545:	
  4291                           ;incstack = 0
  4292                           ; Regs used in ___fldiv: [wreg+status,2+status,0+btemp+1]
  4293                           
  4294     052E  1283               	bcf	3,5	;RP0=0, select bank0
  4295     052F  1303               	bcf	3,6	;RP1=0, select bank0
  4296     0530  0846               	movf	___fldiv@b+3,w
  4297     0531  3980               	andlw	128
  4298     0532  00D0               	movwf	___fldiv@sign
  4299     0533                     l1547:
  4300     0533  0846               	movf	___fldiv@b+3,w
  4301     0534  00C7               	movwf	??___fldiv
  4302     0535  0747               	addwf	??___fldiv,w
  4303     0536  00D7               	movwf	___fldiv@bexp
  4304     0537                     l1549:
  4305     0537  1FC5               	btfss	___fldiv@b+2,7
  4306     0538  2D3A               	goto	u1621
  4307     0539  2D3B               	goto	u1620
  4308     053A                     u1621:
  4309     053A  2D3C               	goto	l1553
  4310     053B                     u1620:
  4311     053B                     l1551:
  4312     053B  1457               	bsf	___fldiv@bexp,0
  4313     053C                     l1553:
  4314     053C  0857               	movf	___fldiv@bexp,w
  4315     053D  1903               	btfsc	3,2
  4316     053E  2D40               	goto	u1631
  4317     053F  2D41               	goto	u1630
  4318     0540                     u1631:
  4319     0540  2D51               	goto	l1563
  4320     0541                     u1630:
  4321     0541                     l1555:
  4322     0541  0A57               	incf	___fldiv@bexp,w
  4323     0542  1D03               	btfss	3,2
  4324     0543  2D45               	goto	u1641
  4325     0544  2D46               	goto	u1640
  4326     0545                     u1641:
  4327     0545  2D4E               	goto	l1559
  4328     0546                     u1640:
  4329     0546                     l1557:
  4330     0546  3000               	movlw	0
  4331     0547  00C6               	movwf	___fldiv@b+3
  4332     0548  3000               	movlw	0
  4333     0549  00C5               	movwf	___fldiv@b+2
  4334     054A  3000               	movlw	0
  4335     054B  00C4               	movwf	___fldiv@b+1
  4336     054C  3000               	movlw	0
  4337     054D  00C3               	movwf	___fldiv@b
  4338     054E                     l1559:
  4339     054E  17C5               	bsf	___fldiv@b+2,7
  4340     054F                     l1561:
  4341     054F  01C6               	clrf	___fldiv@b+3
  4342     0550  2D59               	goto	l1565
  4343     0551                     l1563:
  4344     0551  3000               	movlw	0
  4345     0552  00C6               	movwf	___fldiv@b+3
  4346     0553  3000               	movlw	0
  4347     0554  00C5               	movwf	___fldiv@b+2
  4348     0555  3000               	movlw	0
  4349     0556  00C4               	movwf	___fldiv@b+1
  4350     0557  3000               	movlw	0
  4351     0558  00C3               	movwf	___fldiv@b
  4352     0559                     l1565:
  4353     0559  0842               	movf	___fldiv@a+3,w
  4354     055A  3980               	andlw	128
  4355     055B  00C7               	movwf	??___fldiv
  4356     055C  0847               	movf	??___fldiv,w
  4357     055D  06D0               	xorwf	___fldiv@sign,f
  4358     055E                     l1567:
  4359     055E  0842               	movf	___fldiv@a+3,w
  4360     055F  00C7               	movwf	??___fldiv
  4361     0560  0747               	addwf	??___fldiv,w
  4362     0561  00D8               	movwf	___fldiv@aexp
  4363     0562                     l1569:
  4364     0562  1FC1               	btfss	___fldiv@a+2,7
  4365     0563  2D65               	goto	u1651
  4366     0564  2D66               	goto	u1650
  4367     0565                     u1651:
  4368     0565  2D67               	goto	l1573
  4369     0566                     u1650:
  4370     0566                     l1571:
  4371     0566  1458               	bsf	___fldiv@aexp,0
  4372     0567                     l1573:
  4373     0567  0858               	movf	___fldiv@aexp,w
  4374     0568  1903               	btfsc	3,2
  4375     0569  2D6B               	goto	u1661
  4376     056A  2D6C               	goto	u1660
  4377     056B                     u1661:
  4378     056B  2D7C               	goto	l1583
  4379     056C                     u1660:
  4380     056C                     l1575:
  4381     056C  0A58               	incf	___fldiv@aexp,w
  4382     056D  1D03               	btfss	3,2
  4383     056E  2D70               	goto	u1671
  4384     056F  2D71               	goto	u1670
  4385     0570                     u1671:
  4386     0570  2D79               	goto	l1579
  4387     0571                     u1670:
  4388     0571                     l1577:
  4389     0571  3000               	movlw	0
  4390     0572  00C2               	movwf	___fldiv@a+3
  4391     0573  3000               	movlw	0
  4392     0574  00C1               	movwf	___fldiv@a+2
  4393     0575  3000               	movlw	0
  4394     0576  00C0               	movwf	___fldiv@a+1
  4395     0577  3000               	movlw	0
  4396     0578  00BF               	movwf	___fldiv@a
  4397     0579                     l1579:
  4398     0579  17C1               	bsf	___fldiv@a+2,7
  4399     057A                     l1581:
  4400     057A  01C2               	clrf	___fldiv@a+3
  4401     057B  2D84               	goto	l672
  4402     057C                     l1583:
  4403     057C  3000               	movlw	0
  4404     057D  00C2               	movwf	___fldiv@a+3
  4405     057E  3000               	movlw	0
  4406     057F  00C1               	movwf	___fldiv@a+2
  4407     0580  3000               	movlw	0
  4408     0581  00C0               	movwf	___fldiv@a+1
  4409     0582  3000               	movlw	0
  4410     0583  00BF               	movwf	___fldiv@a
  4411     0584                     l672:
  4412     0584  0842               	movf	___fldiv@a+3,w
  4413     0585  0441               	iorwf	___fldiv@a+2,w
  4414     0586  0440               	iorwf	___fldiv@a+1,w
  4415     0587  043F               	iorwf	___fldiv@a,w
  4416     0588  1D03               	skipz
  4417     0589  2D8B               	goto	u1681
  4418     058A  2D8C               	goto	u1680
  4419     058B                     u1681:
  4420     058B  2DA5               	goto	l1593
  4421     058C                     u1680:
  4422     058C                     l1585:
  4423     058C  3000               	movlw	0
  4424     058D  00C6               	movwf	___fldiv@b+3
  4425     058E  3000               	movlw	0
  4426     058F  00C5               	movwf	___fldiv@b+2
  4427     0590  3000               	movlw	0
  4428     0591  00C4               	movwf	___fldiv@b+1
  4429     0592  3000               	movlw	0
  4430     0593  00C3               	movwf	___fldiv@b
  4431     0594  3080               	movlw	128
  4432     0595  04C5               	iorwf	___fldiv@b+2,f
  4433     0596  307F               	movlw	127
  4434     0597  04C6               	iorwf	___fldiv@b+3,f
  4435     0598                     l1587:
  4436     0598  0850               	movf	___fldiv@sign,w
  4437     0599  00C7               	movwf	??___fldiv
  4438     059A  0847               	movf	??___fldiv,w
  4439     059B  04C6               	iorwf	___fldiv@b+3,f
  4440     059C                     l1589:
  4441     059C  0846               	movf	___fldiv@b+3,w
  4442     059D  00C2               	movwf	?___fldiv+3
  4443     059E  0845               	movf	___fldiv@b+2,w
  4444     059F  00C1               	movwf	?___fldiv+2
  4445     05A0  0844               	movf	___fldiv@b+1,w
  4446     05A1  00C0               	movwf	?___fldiv+1
  4447     05A2  0843               	movf	___fldiv@b,w
  4448     05A3  00BF               	movwf	?___fldiv
  4449     05A4  2F00               	goto	l674
  4450     05A5                     l1593:
  4451     05A5  0857               	movf	___fldiv@bexp,w
  4452     05A6  1D03               	btfss	3,2
  4453     05A7  2DA9               	goto	u1691
  4454     05A8  2DAA               	goto	u1690
  4455     05A9                     u1691:
  4456     05A9  2DB3               	goto	l1599
  4457     05AA                     u1690:
  4458     05AA                     l1595:
  4459     05AA  3000               	movlw	0
  4460     05AB  00C2               	movwf	?___fldiv+3
  4461     05AC  3000               	movlw	0
  4462     05AD  00C1               	movwf	?___fldiv+2
  4463     05AE  3000               	movlw	0
  4464     05AF  00C0               	movwf	?___fldiv+1
  4465     05B0  3000               	movlw	0
  4466     05B1  00BF               	movwf	?___fldiv
  4467     05B2  2F00               	goto	l674
  4468     05B3                     l1599:
  4469     05B3  0857               	movf	___fldiv@bexp,w
  4470     05B4  00C7               	movwf	??___fldiv
  4471     05B5  01C8               	clrf	??___fldiv+1
  4472     05B6  0848               	movf	??___fldiv+1,w
  4473     05B7  00CA               	movwf	??___fldiv+3
  4474     05B8  0858               	movf	___fldiv@aexp,w
  4475     05B9  0247               	subwf	??___fldiv,w
  4476     05BA  00C9               	movwf	??___fldiv+2
  4477     05BB  1C03               	skipc
  4478     05BC  03CA               	decf	??___fldiv+3,f
  4479     05BD  0849               	movf	??___fldiv+2,w
  4480     05BE  3E7F               	addlw	127
  4481     05BF  00D1               	movwf	___fldiv@new_exp
  4482     05C0  084A               	movf	??___fldiv+3,w
  4483     05C1  1803               	skipnc
  4484     05C2  3E01               	addlw	1
  4485     05C3  3E00               	addlw	0
  4486     05C4  00D2               	movwf	___fldiv@new_exp+1
  4487     05C5                     l1601:
  4488     05C5  0846               	movf	___fldiv@b+3,w
  4489     05C6  00CF               	movwf	___fldiv@rem+3
  4490     05C7  0845               	movf	___fldiv@b+2,w
  4491     05C8  00CE               	movwf	___fldiv@rem+2
  4492     05C9  0844               	movf	___fldiv@b+1,w
  4493     05CA  00CD               	movwf	___fldiv@rem+1
  4494     05CB  0843               	movf	___fldiv@b,w
  4495     05CC  00CC               	movwf	___fldiv@rem
  4496     05CD                     l1603:
  4497     05CD  3000               	movlw	0
  4498     05CE  00C6               	movwf	___fldiv@b+3
  4499     05CF  3000               	movlw	0
  4500     05D0  00C5               	movwf	___fldiv@b+2
  4501     05D1  3000               	movlw	0
  4502     05D2  00C4               	movwf	___fldiv@b+1
  4503     05D3  3000               	movlw	0
  4504     05D4  00C3               	movwf	___fldiv@b
  4505     05D5                     l1605:
  4506     05D5  3000               	movlw	0
  4507     05D6  00D6               	movwf	___fldiv@grs+3
  4508     05D7  3000               	movlw	0
  4509     05D8  00D5               	movwf	___fldiv@grs+2
  4510     05D9  3000               	movlw	0
  4511     05DA  00D4               	movwf	___fldiv@grs+1
  4512     05DB  3000               	movlw	0
  4513     05DC  00D3               	movwf	___fldiv@grs
  4514     05DD                     l1607:
  4515     05DD  01D8               	clrf	___fldiv@aexp
  4516     05DE  2E29               	goto	l1627
  4517     05DF                     l1609:
  4518     05DF  0858               	movf	___fldiv@aexp,w
  4519     05E0  1903               	btfsc	3,2
  4520     05E1  2DE3               	goto	u1701
  4521     05E2  2DE4               	goto	u1700
  4522     05E3                     u1701:
  4523     05E3  2E04               	goto	l1619
  4524     05E4                     u1700:
  4525     05E4                     l1611:
  4526     05E4  3001               	movlw	1
  4527     05E5  00C7               	movwf	??___fldiv
  4528     05E6                     u1715:
  4529     05E6  1003               	clrc
  4530     05E7  0DCC               	rlf	___fldiv@rem,f
  4531     05E8  0DCD               	rlf	___fldiv@rem+1,f
  4532     05E9  0DCE               	rlf	___fldiv@rem+2,f
  4533     05EA  0DCF               	rlf	___fldiv@rem+3,f
  4534     05EB  0BC7               	decfsz	??___fldiv,f
  4535     05EC  2DE6               	goto	u1715
  4536     05ED  3001               	movlw	1
  4537     05EE  00C7               	movwf	??___fldiv
  4538     05EF                     u1725:
  4539     05EF  1003               	clrc
  4540     05F0  0DC3               	rlf	___fldiv@b,f
  4541     05F1  0DC4               	rlf	___fldiv@b+1,f
  4542     05F2  0DC5               	rlf	___fldiv@b+2,f
  4543     05F3  0DC6               	rlf	___fldiv@b+3,f
  4544     05F4  0BC7               	decfsz	??___fldiv,f
  4545     05F5  2DEF               	goto	u1725
  4546     05F6                     l1613:
  4547     05F6  1FD6               	btfss	___fldiv@grs+3,7
  4548     05F7  2DF9               	goto	u1731
  4549     05F8  2DFA               	goto	u1730
  4550     05F9                     u1731:
  4551     05F9  2DFB               	goto	l1617
  4552     05FA                     u1730:
  4553     05FA                     l1615:
  4554     05FA  1443               	bsf	___fldiv@b,0
  4555     05FB                     l1617:
  4556     05FB  3001               	movlw	1
  4557     05FC  00C7               	movwf	??___fldiv
  4558     05FD                     u1745:
  4559     05FD  1003               	clrc
  4560     05FE  0DD3               	rlf	___fldiv@grs,f
  4561     05FF  0DD4               	rlf	___fldiv@grs+1,f
  4562     0600  0DD5               	rlf	___fldiv@grs+2,f
  4563     0601  0DD6               	rlf	___fldiv@grs+3,f
  4564     0602  0BC7               	decfsz	??___fldiv,f
  4565     0603  2DFD               	goto	u1745
  4566     0604                     l1619:
  4567     0604  0842               	movf	___fldiv@a+3,w
  4568     0605  024F               	subwf	___fldiv@rem+3,w
  4569     0606  1D03               	skipz
  4570     0607  2E12               	goto	u1755
  4571     0608  0841               	movf	___fldiv@a+2,w
  4572     0609  024E               	subwf	___fldiv@rem+2,w
  4573     060A  1D03               	skipz
  4574     060B  2E12               	goto	u1755
  4575     060C  0840               	movf	___fldiv@a+1,w
  4576     060D  024D               	subwf	___fldiv@rem+1,w
  4577     060E  1D03               	skipz
  4578     060F  2E12               	goto	u1755
  4579     0610  083F               	movf	___fldiv@a,w
  4580     0611  024C               	subwf	___fldiv@rem,w
  4581     0612                     u1755:
  4582     0612  1C03               	skipc
  4583     0613  2E15               	goto	u1751
  4584     0614  2E16               	goto	u1750
  4585     0615                     u1751:
  4586     0615  2E25               	goto	l1625
  4587     0616                     u1750:
  4588     0616                     l1621:
  4589     0616  1756               	bsf	___fldiv@grs+3,6
  4590     0617                     l1623:
  4591     0617  083F               	movf	___fldiv@a,w
  4592     0618  02CC               	subwf	___fldiv@rem,f
  4593     0619  0840               	movf	___fldiv@a+1,w
  4594     061A  1C03               	skipc
  4595     061B  0F40               	incfsz	___fldiv@a+1,w
  4596     061C  02CD               	subwf	___fldiv@rem+1,f
  4597     061D  0841               	movf	___fldiv@a+2,w
  4598     061E  1C03               	skipc
  4599     061F  0F41               	incfsz	___fldiv@a+2,w
  4600     0620  02CE               	subwf	___fldiv@rem+2,f
  4601     0621  0842               	movf	___fldiv@a+3,w
  4602     0622  1C03               	skipc
  4603     0623  0F42               	incfsz	___fldiv@a+3,w
  4604     0624  02CF               	subwf	___fldiv@rem+3,f
  4605     0625                     l1625:
  4606     0625  3001               	movlw	1
  4607     0626  00C7               	movwf	??___fldiv
  4608     0627  0847               	movf	??___fldiv,w
  4609     0628  07D8               	addwf	___fldiv@aexp,f
  4610     0629                     l1627:
  4611     0629  301A               	movlw	26
  4612     062A  0258               	subwf	___fldiv@aexp,w
  4613     062B  1C03               	skipc
  4614     062C  2E2E               	goto	u1761
  4615     062D  2E2F               	goto	u1760
  4616     062E                     u1761:
  4617     062E  2DDF               	goto	l1609
  4618     062F                     u1760:
  4619     062F                     l1629:
  4620     062F  084F               	movf	___fldiv@rem+3,w
  4621     0630  044E               	iorwf	___fldiv@rem+2,w
  4622     0631  044D               	iorwf	___fldiv@rem+1,w
  4623     0632  044C               	iorwf	___fldiv@rem,w
  4624     0633  1903               	skipnz
  4625     0634  2E36               	goto	u1771
  4626     0635  2E37               	goto	u1770
  4627     0636                     u1771:
  4628     0636  2E56               	goto	l1643
  4629     0637                     u1770:
  4630     0637                     l1631:
  4631     0637  1453               	bsf	___fldiv@grs,0
  4632     0638  2E56               	goto	l1643
  4633     0639                     l1633:
  4634     0639  3001               	movlw	1
  4635     063A  00C7               	movwf	??___fldiv
  4636     063B                     u1785:
  4637     063B  1003               	clrc
  4638     063C  0DC3               	rlf	___fldiv@b,f
  4639     063D  0DC4               	rlf	___fldiv@b+1,f
  4640     063E  0DC5               	rlf	___fldiv@b+2,f
  4641     063F  0DC6               	rlf	___fldiv@b+3,f
  4642     0640  0BC7               	decfsz	??___fldiv,f
  4643     0641  2E3B               	goto	u1785
  4644     0642                     l1635:
  4645     0642  1FD6               	btfss	___fldiv@grs+3,7
  4646     0643  2E45               	goto	u1791
  4647     0644  2E46               	goto	u1790
  4648     0645                     u1791:
  4649     0645  2E47               	goto	l1639
  4650     0646                     u1790:
  4651     0646                     l1637:
  4652     0646  1443               	bsf	___fldiv@b,0
  4653     0647                     l1639:
  4654     0647  3001               	movlw	1
  4655     0648  00C7               	movwf	??___fldiv
  4656     0649                     u1805:
  4657     0649  1003               	clrc
  4658     064A  0DD3               	rlf	___fldiv@grs,f
  4659     064B  0DD4               	rlf	___fldiv@grs+1,f
  4660     064C  0DD5               	rlf	___fldiv@grs+2,f
  4661     064D  0DD6               	rlf	___fldiv@grs+3,f
  4662     064E  0BC7               	decfsz	??___fldiv,f
  4663     064F  2E49               	goto	u1805
  4664     0650                     l1641:
  4665     0650  30FF               	movlw	255
  4666     0651  07D1               	addwf	___fldiv@new_exp,f
  4667     0652  1803               	skipnc
  4668     0653  0AD2               	incf	___fldiv@new_exp+1,f
  4669     0654  30FF               	movlw	255
  4670     0655  07D2               	addwf	___fldiv@new_exp+1,f
  4671     0656                     l1643:
  4672     0656  1FC5               	btfss	___fldiv@b+2,7
  4673     0657  2E59               	goto	u1811
  4674     0658  2E5A               	goto	u1810
  4675     0659                     u1811:
  4676     0659  2E39               	goto	l1633
  4677     065A                     u1810:
  4678     065A                     l1645:
  4679     065A  01D8               	clrf	___fldiv@aexp
  4680     065B                     l1647:
  4681     065B  1FD6               	btfss	___fldiv@grs+3,7
  4682     065C  2E5E               	goto	u1821
  4683     065D  2E5F               	goto	u1820
  4684     065E                     u1821:
  4685     065E  2E7B               	goto	l1655
  4686     065F                     u1820:
  4687     065F                     l1649:
  4688     065F  30FF               	movlw	255
  4689     0660  0553               	andwf	___fldiv@grs,w
  4690     0661  00C7               	movwf	??___fldiv
  4691     0662  30FF               	movlw	255
  4692     0663  0554               	andwf	___fldiv@grs+1,w
  4693     0664  00C8               	movwf	??___fldiv+1
  4694     0665  30FF               	movlw	255
  4695     0666  0555               	andwf	___fldiv@grs+2,w
  4696     0667  00C9               	movwf	??___fldiv+2
  4697     0668  307F               	movlw	127
  4698     0669  0556               	andwf	___fldiv@grs+3,w
  4699     066A  00CA               	movwf	??___fldiv+3
  4700     066B  084A               	movf	??___fldiv+3,w
  4701     066C  0449               	iorwf	??___fldiv+2,w
  4702     066D  0448               	iorwf	??___fldiv+1,w
  4703     066E  0447               	iorwf	??___fldiv,w
  4704     066F  1903               	skipnz
  4705     0670  2E72               	goto	u1831
  4706     0671  2E73               	goto	u1830
  4707     0672                     u1831:
  4708     0672  2E76               	goto	l688
  4709     0673                     u1830:
  4710     0673                     l1651:
  4711     0673  01D8               	clrf	___fldiv@aexp
  4712     0674  0AD8               	incf	___fldiv@aexp,f
  4713     0675  2E7B               	goto	l1655
  4714     0676                     l688:
  4715     0676  1C43               	btfss	___fldiv@b,0
  4716     0677  2E79               	goto	u1841
  4717     0678  2E7A               	goto	u1840
  4718     0679                     u1841:
  4719     0679  2E7B               	goto	l1655
  4720     067A                     u1840:
  4721     067A  2E73               	goto	l1651
  4722     067B                     l1655:
  4723     067B  0858               	movf	___fldiv@aexp,w
  4724     067C  1903               	btfsc	3,2
  4725     067D  2E7F               	goto	u1851
  4726     067E  2E80               	goto	u1850
  4727     067F                     u1851:
  4728     067F  2EB1               	goto	l1665
  4729     0680                     u1850:
  4730     0680                     l1657:
  4731     0680  3001               	movlw	1
  4732     0681  07C3               	addwf	___fldiv@b,f
  4733     0682  3000               	movlw	0
  4734     0683  1803               	skipnc
  4735     0684  3001               	movlw	1
  4736     0685  07C4               	addwf	___fldiv@b+1,f
  4737     0686  3000               	movlw	0
  4738     0687  1803               	skipnc
  4739     0688  3001               	movlw	1
  4740     0689  07C5               	addwf	___fldiv@b+2,f
  4741     068A  3000               	movlw	0
  4742     068B  1803               	skipnc
  4743     068C  3001               	movlw	1
  4744     068D  07C6               	addwf	___fldiv@b+3,f
  4745     068E                     l1659:
  4746     068E  1C46               	btfss	___fldiv@b+3,0
  4747     068F  2E91               	goto	u1861
  4748     0690  2E92               	goto	u1860
  4749     0691                     u1861:
  4750     0691  2EB1               	goto	l1665
  4751     0692                     u1860:
  4752     0692                     l1661:
  4753     0692  0843               	movf	___fldiv@b,w
  4754     0693  00C7               	movwf	??___fldiv
  4755     0694  0844               	movf	___fldiv@b+1,w
  4756     0695  00C8               	movwf	??___fldiv+1
  4757     0696  0845               	movf	___fldiv@b+2,w
  4758     0697  00C9               	movwf	??___fldiv+2
  4759     0698  0846               	movf	___fldiv@b+3,w
  4760     0699  00CA               	movwf	??___fldiv+3
  4761     069A  3001               	movlw	1
  4762     069B  00CB               	movwf	??___fldiv+4
  4763     069C                     u1875:
  4764     069C  0D4A               	rlf	??___fldiv+3,w
  4765     069D  0CCA               	rrf	??___fldiv+3,f
  4766     069E  0CC9               	rrf	??___fldiv+2,f
  4767     069F  0CC8               	rrf	??___fldiv+1,f
  4768     06A0  0CC7               	rrf	??___fldiv,f
  4769     06A1                     u1870:
  4770     06A1  0BCB               	decfsz	??___fldiv+4,f
  4771     06A2  2E9C               	goto	u1875
  4772     06A3  084A               	movf	??___fldiv+3,w
  4773     06A4  00C6               	movwf	___fldiv@b+3
  4774     06A5  0849               	movf	??___fldiv+2,w
  4775     06A6  00C5               	movwf	___fldiv@b+2
  4776     06A7  0848               	movf	??___fldiv+1,w
  4777     06A8  00C4               	movwf	___fldiv@b+1
  4778     06A9  0847               	movf	??___fldiv,w
  4779     06AA  00C3               	movwf	___fldiv@b
  4780     06AB                     l1663:
  4781     06AB  3001               	movlw	1
  4782     06AC  07D1               	addwf	___fldiv@new_exp,f
  4783     06AD  1803               	skipnc
  4784     06AE  0AD2               	incf	___fldiv@new_exp+1,f
  4785     06AF  3000               	movlw	0
  4786     06B0  07D2               	addwf	___fldiv@new_exp+1,f
  4787     06B1                     l1665:
  4788     06B1  0852               	movf	___fldiv@new_exp+1,w
  4789     06B2  3A80               	xorlw	128
  4790     06B3  00FF               	movwf	btemp+1
  4791     06B4  3080               	movlw	128
  4792     06B5  027F               	subwf	btemp+1,w
  4793     06B6  1D03               	skipz
  4794     06B7  2EBA               	goto	u1885
  4795     06B8  30FF               	movlw	255
  4796     06B9  0251               	subwf	___fldiv@new_exp,w
  4797     06BA                     u1885:
  4798     06BA  1C03               	skipc
  4799     06BB  2EBD               	goto	u1881
  4800     06BC  2EBE               	goto	u1880
  4801     06BD                     u1881:
  4802     06BD  2ECC               	goto	l1669
  4803     06BE                     u1880:
  4804     06BE                     l1667:
  4805     06BE  30FF               	movlw	255
  4806     06BF  1283               	bcf	3,5	;RP0=0, select bank0
  4807     06C0  1303               	bcf	3,6	;RP1=0, select bank0
  4808     06C1  00D1               	movwf	___fldiv@new_exp
  4809     06C2  3000               	movlw	0
  4810     06C3  00D2               	movwf	___fldiv@new_exp+1
  4811     06C4  3000               	movlw	0
  4812     06C5  00C6               	movwf	___fldiv@b+3
  4813     06C6  3000               	movlw	0
  4814     06C7  00C5               	movwf	___fldiv@b+2
  4815     06C8  3000               	movlw	0
  4816     06C9  00C4               	movwf	___fldiv@b+1
  4817     06CA  3000               	movlw	0
  4818     06CB  00C3               	movwf	___fldiv@b
  4819     06CC                     l1669:
  4820     06CC  1283               	bcf	3,5	;RP0=0, select bank0
  4821     06CD  1303               	bcf	3,6	;RP1=0, select bank0
  4822     06CE  0852               	movf	___fldiv@new_exp+1,w
  4823     06CF  3A80               	xorlw	128
  4824     06D0  00FF               	movwf	btemp+1
  4825     06D1  3080               	movlw	128
  4826     06D2  027F               	subwf	btemp+1,w
  4827     06D3  1D03               	skipz
  4828     06D4  2ED7               	goto	u1895
  4829     06D5  3001               	movlw	1
  4830     06D6  0251               	subwf	___fldiv@new_exp,w
  4831     06D7                     u1895:
  4832     06D7  1803               	skipnc
  4833     06D8  2EDA               	goto	u1891
  4834     06D9  2EDB               	goto	u1890
  4835     06DA                     u1891:
  4836     06DA  2EE8               	goto	l694
  4837     06DB                     u1890:
  4838     06DB                     l1671:
  4839     06DB  1283               	bcf	3,5	;RP0=0, select bank0
  4840     06DC  1303               	bcf	3,6	;RP1=0, select bank0
  4841     06DD  01D1               	clrf	___fldiv@new_exp
  4842     06DE  01D2               	clrf	___fldiv@new_exp+1
  4843     06DF                     l1673:
  4844     06DF  3000               	movlw	0
  4845     06E0  00C6               	movwf	___fldiv@b+3
  4846     06E1  3000               	movlw	0
  4847     06E2  00C5               	movwf	___fldiv@b+2
  4848     06E3  3000               	movlw	0
  4849     06E4  00C4               	movwf	___fldiv@b+1
  4850     06E5  3000               	movlw	0
  4851     06E6  00C3               	movwf	___fldiv@b
  4852     06E7                     l1675:
  4853     06E7  01D0               	clrf	___fldiv@sign
  4854     06E8                     l694:
  4855     06E8  1283               	bcf	3,5	;RP0=0, select bank0
  4856     06E9  1303               	bcf	3,6	;RP1=0, select bank0
  4857     06EA  0851               	movf	___fldiv@new_exp,w
  4858     06EB  00D7               	movwf	___fldiv@bexp
  4859     06EC                     l1677:
  4860     06EC  1C57               	btfss	___fldiv@bexp,0
  4861     06ED  2EEF               	goto	u1901
  4862     06EE  2EF0               	goto	u1900
  4863     06EF                     u1901:
  4864     06EF  2EF2               	goto	l1681
  4865     06F0                     u1900:
  4866     06F0                     l1679:
  4867     06F0  17C5               	bsf	___fldiv@b+2,7
  4868     06F1  2EF6               	goto	l696
  4869     06F2                     l1681:
  4870     06F2  307F               	movlw	127
  4871     06F3  00C7               	movwf	??___fldiv
  4872     06F4  0847               	movf	??___fldiv,w
  4873     06F5  05C5               	andwf	___fldiv@b+2,f
  4874     06F6                     l696:
  4875     06F6  0857               	movf	___fldiv@bexp,w
  4876     06F7  00C7               	movwf	??___fldiv
  4877     06F8  1003               	clrc
  4878     06F9  0C47               	rrf	??___fldiv,w
  4879     06FA  00C6               	movwf	___fldiv@b+3
  4880     06FB  0850               	movf	___fldiv@sign,w
  4881     06FC  00C7               	movwf	??___fldiv
  4882     06FD  0847               	movf	??___fldiv,w
  4883     06FE  04C6               	iorwf	___fldiv@b+3,f
  4884     06FF  2D9C               	goto	l1589
  4885     0700                     l674:
  4886     0700  0008               	return
  4887     0701                     __end_of___fldiv:
  4888                           
  4889                           	psect	text14
  4890     0C73                     __ptext14:	
  4891 ;; *************** function _ADC_read *****************
  4892 ;; Defined at:
  4893 ;;		line 41 in file "setupADC.c"
  4894 ;; Parameters:    Size  Location     Type
  4895 ;;  channel         2    3[COMMON] int 
  4896 ;; Auto vars:     Size  Location     Type
  4897 ;;		None
  4898 ;; Return value:  Size  Location     Type
  4899 ;;                  2    3[COMMON] unsigned int 
  4900 ;; Registers used:
  4901 ;;		wreg, status,2, status,0
  4902 ;; Tracked objects:
  4903 ;;		On entry : 0/0
  4904 ;;		On exit  : 0/0
  4905 ;;		Unchanged: 0/0
  4906 ;; Data sizes:     COMMON   BANK0   BANK1   BANK3   BANK2
  4907 ;;      Params:         2       0       0       0       0
  4908 ;;      Locals:         0       0       0       0       0
  4909 ;;      Temps:          2       0       0       0       0
  4910 ;;      Totals:         4       0       0       0       0
  4911 ;;Total ram usage:        4 bytes
  4912 ;; Hardware stack levels used: 1
  4913 ;; Hardware stack levels required when called: 1
  4914 ;; This function calls:
  4915 ;;		Nothing
  4916 ;; This function is called by:
  4917 ;;		_main
  4918 ;; This function uses a non-reentrant model
  4919 ;;
  4920                           
  4921     0C73                     _ADC_read:	
  4922                           ;psect for function _ADC_read
  4923                           
  4924     0C73                     l1929:	
  4925                           ;incstack = 0
  4926                           ; Regs used in _ADC_read: [wreg+status,2+status,0]
  4927                           
  4928                           
  4929                           ;setupADC.c: 42:     if(channel ==0){
  4930     0C73  0873               	movf	ADC_read@channel,w
  4931     0C74  0474               	iorwf	ADC_read@channel+1,w
  4932     0C75  1D03               	btfss	3,2
  4933     0C76  2C78               	goto	u2581
  4934     0C77  2C79               	goto	u2580
  4935     0C78                     u2581:
  4936     0C78  2C92               	goto	l1941
  4937     0C79                     u2580:
  4938     0C79                     l1931:
  4939                           
  4940                           ;setupADC.c: 43:         ADCON0bits.CHS = 0b0000;
  4941     0C79  30C3               	movlw	-61
  4942     0C7A  1283               	bcf	3,5	;RP0=0, select bank0
  4943     0C7B  1303               	bcf	3,6	;RP1=0, select bank0
  4944     0C7C  059F               	andwf	31,f	;volatile
  4945     0C7D                     l1933:
  4946                           
  4947                           ;setupADC.c: 44:         _delay((unsigned long)((100)*(2000000/4000000.0)));
  4948     0C7D  3010               	movlw	16
  4949     0C7E  00F5               	movwf	??_ADC_read
  4950     0C7F                     u3457:
  4951     0C7F  0BF5               	decfsz	??_ADC_read,f
  4952     0C80  2C7F               	goto	u3457
  4953     0C81  0000               	nop
  4954     0C82                     l1935:
  4955                           
  4956                           ;setupADC.c: 45:         ADCON0bits.GO = 1;
  4957     0C82  1283               	bcf	3,5	;RP0=0, select bank0
  4958     0C83  1303               	bcf	3,6	;RP1=0, select bank0
  4959     0C84  149F               	bsf	31,1	;volatile
  4960     0C85                     l226:	
  4961                           ;setupADC.c: 46:         while (ADCON0bits.GO);
  4962                           
  4963     0C85  189F               	btfsc	31,1	;volatile
  4964     0C86  2C88               	goto	u2591
  4965     0C87  2C89               	goto	u2590
  4966     0C88                     u2591:
  4967     0C88  2C85               	goto	l226
  4968     0C89                     u2590:
  4969     0C89                     l228:
  4970                           
  4971                           ;setupADC.c: 47:         ADIF = 0;
  4972     0C89  130C               	bcf	12,6	;volatile
  4973     0C8A                     l1937:
  4974                           
  4975                           ;setupADC.c: 48:         return ADRESH;
  4976     0C8A  081E               	movf	30,w	;volatile
  4977     0C8B  00F5               	movwf	??_ADC_read
  4978     0C8C  01F6               	clrf	??_ADC_read+1
  4979     0C8D  0875               	movf	??_ADC_read,w
  4980     0C8E  00F3               	movwf	?_ADC_read
  4981     0C8F  0876               	movf	??_ADC_read+1,w
  4982     0C90  00F4               	movwf	?_ADC_read+1
  4983     0C91  2CC5               	goto	l229
  4984     0C92                     l1941:
  4985                           
  4986                           ;setupADC.c: 50:     if(channel ==1){
  4987     0C92  0373               	decf	ADC_read@channel,w
  4988     0C93  0474               	iorwf	ADC_read@channel+1,w
  4989     0C94  1D03               	btfss	3,2
  4990     0C95  2C97               	goto	u2601
  4991     0C96  2C98               	goto	u2600
  4992     0C97                     u2601:
  4993     0C97  2CAB               	goto	l1953
  4994     0C98                     u2600:
  4995     0C98                     l1943:
  4996                           
  4997                           ;setupADC.c: 51:         ADCON0bits.CHS = 0b0001;
  4998     0C98  1283               	bcf	3,5	;RP0=0, select bank0
  4999     0C99  1303               	bcf	3,6	;RP1=0, select bank0
  5000     0C9A  081F               	movf	31,w	;volatile
  5001     0C9B  39C3               	andlw	-61
  5002     0C9C  3804               	iorlw	4
  5003     0C9D  009F               	movwf	31	;volatile
  5004     0C9E                     l1945:
  5005                           
  5006                           ;setupADC.c: 52:         _delay((unsigned long)((100)*(2000000/4000000.0)));
  5007     0C9E  3010               	movlw	16
  5008     0C9F  00F5               	movwf	??_ADC_read
  5009     0CA0                     u3467:
  5010     0CA0  0BF5               	decfsz	??_ADC_read,f
  5011     0CA1  2CA0               	goto	u3467
  5012     0CA2  0000               	nop
  5013     0CA3                     l1947:
  5014                           
  5015                           ;setupADC.c: 53:         ADCON0bits.GO = 1;
  5016     0CA3  1283               	bcf	3,5	;RP0=0, select bank0
  5017     0CA4  1303               	bcf	3,6	;RP1=0, select bank0
  5018     0CA5  149F               	bsf	31,1	;volatile
  5019     0CA6                     l231:	
  5020                           ;setupADC.c: 54:         while (ADCON0bits.GO);
  5021                           
  5022     0CA6  189F               	btfsc	31,1	;volatile
  5023     0CA7  2CA9               	goto	u2611
  5024     0CA8  2CAA               	goto	u2610
  5025     0CA9                     u2611:
  5026     0CA9  2CA6               	goto	l231
  5027     0CAA                     u2610:
  5028     0CAA  2C89               	goto	l228
  5029     0CAB                     l1953:
  5030                           
  5031                           ;setupADC.c: 58:     if(channel ==2){
  5032     0CAB  3002               	movlw	2
  5033     0CAC  0673               	xorwf	ADC_read@channel,w
  5034     0CAD  0474               	iorwf	ADC_read@channel+1,w
  5035     0CAE  1D03               	btfss	3,2
  5036     0CAF  2CB1               	goto	u2621
  5037     0CB0  2CB2               	goto	u2620
  5038     0CB1                     u2621:
  5039     0CB1  2CC5               	goto	l229
  5040     0CB2                     u2620:
  5041     0CB2                     l1955:
  5042                           
  5043                           ;setupADC.c: 59:         ADCON0bits.CHS = 0b0010;
  5044     0CB2  1283               	bcf	3,5	;RP0=0, select bank0
  5045     0CB3  1303               	bcf	3,6	;RP1=0, select bank0
  5046     0CB4  081F               	movf	31,w	;volatile
  5047     0CB5  39C3               	andlw	-61
  5048     0CB6  3808               	iorlw	8
  5049     0CB7  009F               	movwf	31	;volatile
  5050     0CB8                     l1957:
  5051                           
  5052                           ;setupADC.c: 60:         _delay((unsigned long)((100)*(2000000/4000000.0)));
  5053     0CB8  3010               	movlw	16
  5054     0CB9  00F5               	movwf	??_ADC_read
  5055     0CBA                     u3477:
  5056     0CBA  0BF5               	decfsz	??_ADC_read,f
  5057     0CBB  2CBA               	goto	u3477
  5058     0CBC  0000               	nop
  5059     0CBD                     l1959:
  5060                           
  5061                           ;setupADC.c: 61:         ADCON0bits.GO = 1;
  5062     0CBD  1283               	bcf	3,5	;RP0=0, select bank0
  5063     0CBE  1303               	bcf	3,6	;RP1=0, select bank0
  5064     0CBF  149F               	bsf	31,1	;volatile
  5065     0CC0                     l235:	
  5066                           ;setupADC.c: 62:         while (ADCON0bits.GO);
  5067                           
  5068     0CC0  189F               	btfsc	31,1	;volatile
  5069     0CC1  2CC3               	goto	u2631
  5070     0CC2  2CC4               	goto	u2630
  5071     0CC3                     u2631:
  5072     0CC3  2CC0               	goto	l235
  5073     0CC4                     u2630:
  5074     0CC4  2C89               	goto	l228
  5075     0CC5                     l229:
  5076     0CC5  0008               	return
  5077     0CC6                     __end_of_ADC_read:
  5078                           
  5079                           	psect	text15
  5080     0C01                     __ptext15:	
  5081 ;; *************** function _ADC_config *****************
  5082 ;; Defined at:
  5083 ;;		line 11 in file "setupADC.c"
  5084 ;; Parameters:    Size  Location     Type
  5085 ;;  channel         2    3[COMMON] int 
  5086 ;; Auto vars:     Size  Location     Type
  5087 ;;		None
  5088 ;; Return value:  Size  Location     Type
  5089 ;;                  1    wreg      void 
  5090 ;; Registers used:
  5091 ;;		wreg
  5092 ;; Tracked objects:
  5093 ;;		On entry : 0/0
  5094 ;;		On exit  : 0/0
  5095 ;;		Unchanged: 0/0
  5096 ;; Data sizes:     COMMON   BANK0   BANK1   BANK3   BANK2
  5097 ;;      Params:         2       0       0       0       0
  5098 ;;      Locals:         0       0       0       0       0
  5099 ;;      Temps:          1       0       0       0       0
  5100 ;;      Totals:         3       0       0       0       0
  5101 ;;Total ram usage:        3 bytes
  5102 ;; Hardware stack levels used: 1
  5103 ;; Hardware stack levels required when called: 1
  5104 ;; This function calls:
  5105 ;;		Nothing
  5106 ;; This function is called by:
  5107 ;;		_main
  5108 ;; This function uses a non-reentrant model
  5109 ;;
  5110                           
  5111     0C01                     _ADC_config:	
  5112                           ;psect for function _ADC_config
  5113                           
  5114     0C01                     l1919:	
  5115                           ;incstack = 0
  5116                           ; Regs used in _ADC_config: [wreg]
  5117                           
  5118                           
  5119                           ;setupADC.c: 12:     if((channel & 0x01) == 1){
  5120     0C01  1C73               	btfss	ADC_config@channel,0
  5121     0C02  2C04               	goto	u2551
  5122     0C03  2C05               	goto	u2550
  5123     0C04                     u2551:
  5124     0C04  2C0E               	goto	l219
  5125     0C05                     u2550:
  5126     0C05                     l1921:
  5127                           
  5128                           ;setupADC.c: 13:         PORTAbits.RA0 = 0;
  5129     0C05  1283               	bcf	3,5	;RP0=0, select bank0
  5130     0C06  1303               	bcf	3,6	;RP1=0, select bank0
  5131     0C07  1005               	bcf	5,0	;volatile
  5132                           
  5133                           ;setupADC.c: 14:         TRISAbits.TRISA0 = 1;
  5134     0C08  1683               	bsf	3,5	;RP0=1, select bank1
  5135     0C09  1303               	bcf	3,6	;RP1=0, select bank1
  5136     0C0A  1405               	bsf	5,0	;volatile
  5137                           
  5138                           ;setupADC.c: 15:         ANSELbits.ANS0 = 1;
  5139     0C0B  1683               	bsf	3,5	;RP0=1, select bank3
  5140     0C0C  1703               	bsf	3,6	;RP1=1, select bank3
  5141     0C0D  1408               	bsf	8,0	;volatile
  5142     0C0E                     l219:	
  5143                           ;setupADC.c: 16:     }
  5144                           
  5145                           
  5146                           ;setupADC.c: 17:     if((channel & 0x02) == 0x02){
  5147     0C0E  1CF3               	btfss	ADC_config@channel,1
  5148     0C0F  2C11               	goto	u2561
  5149     0C10  2C12               	goto	u2560
  5150     0C11                     u2561:
  5151     0C11  2C1B               	goto	l220
  5152     0C12                     u2560:
  5153     0C12                     l1923:
  5154                           
  5155                           ;setupADC.c: 18:         PORTAbits.RA1 = 0;
  5156     0C12  1283               	bcf	3,5	;RP0=0, select bank0
  5157     0C13  1303               	bcf	3,6	;RP1=0, select bank0
  5158     0C14  1085               	bcf	5,1	;volatile
  5159                           
  5160                           ;setupADC.c: 19:         TRISAbits.TRISA1 = 1;
  5161     0C15  1683               	bsf	3,5	;RP0=1, select bank1
  5162     0C16  1303               	bcf	3,6	;RP1=0, select bank1
  5163     0C17  1485               	bsf	5,1	;volatile
  5164                           
  5165                           ;setupADC.c: 20:         ANSELbits.ANS1 = 1;
  5166     0C18  1683               	bsf	3,5	;RP0=1, select bank3
  5167     0C19  1703               	bsf	3,6	;RP1=1, select bank3
  5168     0C1A  1488               	bsf	8,1	;volatile
  5169     0C1B                     l220:	
  5170                           ;setupADC.c: 22:     }
  5171                           
  5172                           
  5173                           ;setupADC.c: 23:     if((channel & 0x04) == 0x4){
  5174     0C1B  1D73               	btfss	ADC_config@channel,2
  5175     0C1C  2C1E               	goto	u2571
  5176     0C1D  2C1F               	goto	u2570
  5177     0C1E                     u2571:
  5178     0C1E  2C28               	goto	l221
  5179     0C1F                     u2570:
  5180     0C1F                     l1925:
  5181                           
  5182                           ;setupADC.c: 24:         PORTAbits.RA2 = 0;
  5183     0C1F  1283               	bcf	3,5	;RP0=0, select bank0
  5184     0C20  1303               	bcf	3,6	;RP1=0, select bank0
  5185     0C21  1105               	bcf	5,2	;volatile
  5186                           
  5187                           ;setupADC.c: 25:         TRISAbits.TRISA2 = 1;
  5188     0C22  1683               	bsf	3,5	;RP0=1, select bank1
  5189     0C23  1303               	bcf	3,6	;RP1=0, select bank1
  5190     0C24  1505               	bsf	5,2	;volatile
  5191                           
  5192                           ;setupADC.c: 26:         ANSELbits.ANS2 = 1;
  5193     0C25  1683               	bsf	3,5	;RP0=1, select bank3
  5194     0C26  1703               	bsf	3,6	;RP1=1, select bank3
  5195     0C27  1508               	bsf	8,2	;volatile
  5196     0C28                     l221:	
  5197                           ;setupADC.c: 27:     }
  5198                           
  5199                           
  5200                           ;setupADC.c: 29:     ADCON0bits.ADCS1 = 0;
  5201     0C28  1283               	bcf	3,5	;RP0=0, select bank0
  5202     0C29  1303               	bcf	3,6	;RP1=0, select bank0
  5203     0C2A  139F               	bcf	31,7	;volatile
  5204                           
  5205                           ;setupADC.c: 30:     ADCON0bits.ADCS0 = 1;
  5206     0C2B  171F               	bsf	31,6	;volatile
  5207                           
  5208                           ;setupADC.c: 32:     ADCON1bits.VCFG1 = 0;
  5209     0C2C  1683               	bsf	3,5	;RP0=1, select bank1
  5210     0C2D  1303               	bcf	3,6	;RP1=0, select bank1
  5211     0C2E  129F               	bcf	31,5	;volatile
  5212                           
  5213                           ;setupADC.c: 33:     ADCON1bits.VCFG0 = 0;
  5214     0C2F  121F               	bcf	31,4	;volatile
  5215                           
  5216                           ;setupADC.c: 35:     ADCON1bits.ADFM = 0;
  5217     0C30  139F               	bcf	31,7	;volatile
  5218                           
  5219                           ;setupADC.c: 37:     ADCON0bits.ADON = 1;
  5220     0C31  1283               	bcf	3,5	;RP0=0, select bank0
  5221     0C32  1303               	bcf	3,6	;RP1=0, select bank0
  5222     0C33  141F               	bsf	31,0	;volatile
  5223     0C34                     l1927:
  5224                           
  5225                           ;setupADC.c: 38:     _delay((unsigned long)((100)*(2000000/4000000.0)));
  5226     0C34  3010               	movlw	16
  5227     0C35  00F5               	movwf	??_ADC_config
  5228     0C36                     u3487:
  5229     0C36  0BF5               	decfsz	??_ADC_config,f
  5230     0C37  2C36               	goto	u3487
  5231     0C38  0000               	nop
  5232     0C39                     l222:
  5233     0C39  0008               	return
  5234     0C3A                     __end_of_ADC_config:
  5235                           
  5236                           	psect	text16
  5237     0D8D                     __ptext16:	
  5238 ;; *************** function _isr *****************
  5239 ;; Defined at:
  5240 ;;		line 63 in file "main.c"
  5241 ;; Parameters:    Size  Location     Type
  5242 ;;		None
  5243 ;; Auto vars:     Size  Location     Type
  5244 ;;		None
  5245 ;; Return value:  Size  Location     Type
  5246 ;;                  1    wreg      void 
  5247 ;; Registers used:
  5248 ;;		wreg
  5249 ;; Tracked objects:
  5250 ;;		On entry : 0/0
  5251 ;;		On exit  : 0/0
  5252 ;;		Unchanged: 0/0
  5253 ;; Data sizes:     COMMON   BANK0   BANK1   BANK3   BANK2
  5254 ;;      Params:         0       0       0       0       0
  5255 ;;      Locals:         0       0       0       0       0
  5256 ;;      Temps:          3       0       0       0       0
  5257 ;;      Totals:         3       0       0       0       0
  5258 ;;Total ram usage:        3 bytes
  5259 ;; Hardware stack levels used: 1
  5260 ;; This function calls:
  5261 ;;		Nothing
  5262 ;; This function is called by:
  5263 ;;		Interrupt level 1
  5264 ;; This function uses a non-reentrant model
  5265 ;;
  5266                           
  5267     0D8D                     _isr:	
  5268                           ;psect for function _isr
  5269                           
  5270     0D8D                     i1l1965:
  5271                           
  5272                           ;main.c: 64:    if(PIR1bits.SSPIF == 1){
  5273     0D8D  1283               	bcf	3,5	;RP0=0, select bank0
  5274     0D8E  1303               	bcf	3,6	;RP1=0, select bank0
  5275     0D8F  1D8C               	btfss	12,3	;volatile
  5276     0D90  2D92               	goto	u264_21
  5277     0D91  2D93               	goto	u264_20
  5278     0D92                     u264_21:
  5279     0D92  2DF3               	goto	i1l100
  5280     0D93                     u264_20:
  5281     0D93                     i1l1967:
  5282                           
  5283                           ;main.c: 66:         SSPCONbits.CKP = 0;
  5284     0D93  1214               	bcf	20,4	;volatile
  5285                           
  5286                           ;main.c: 68:         if ((SSPCONbits.SSPOV) || (SSPCONbits.WCOL)){
  5287     0D94  1B14               	btfsc	20,6	;volatile
  5288     0D95  2D97               	goto	u265_21
  5289     0D96  2D98               	goto	u265_20
  5290     0D97                     u265_21:
  5291     0D97  2D9C               	goto	i1l1971
  5292     0D98                     u265_20:
  5293     0D98                     i1l1969:
  5294     0D98  1F94               	btfss	20,7	;volatile
  5295     0D99  2D9B               	goto	u266_21
  5296     0D9A  2D9C               	goto	u266_20
  5297     0D9B                     u266_21:
  5298     0D9B  2DA5               	goto	i1l1979
  5299     0D9C                     u266_20:
  5300     0D9C                     i1l1971:
  5301                           
  5302                           ;main.c: 69:             z = SSPBUF;
  5303     0D9C  0813               	movf	19,w	;volatile
  5304     0D9D  1683               	bsf	3,5	;RP0=1, select bank1
  5305     0D9E  1303               	bcf	3,6	;RP1=0, select bank1
  5306     0D9F  00C2               	movwf	_z^(0+128)
  5307     0DA0                     i1l1973:
  5308                           
  5309                           ;main.c: 70:             SSPCONbits.SSPOV = 0;
  5310     0DA0  1283               	bcf	3,5	;RP0=0, select bank0
  5311     0DA1  1303               	bcf	3,6	;RP1=0, select bank0
  5312     0DA2  1314               	bcf	20,6	;volatile
  5313     0DA3                     i1l1975:
  5314                           
  5315                           ;main.c: 71:             SSPCONbits.WCOL = 0;
  5316     0DA3  1394               	bcf	20,7	;volatile
  5317     0DA4                     i1l1977:
  5318                           
  5319                           ;main.c: 72:             SSPCONbits.CKP = 1;
  5320     0DA4  1614               	bsf	20,4	;volatile
  5321     0DA5                     i1l1979:
  5322                           
  5323                           ;main.c: 75:         if(!SSPSTATbits.D_nA && !SSPSTATbits.R_nW) {
  5324     0DA5  1683               	bsf	3,5	;RP0=1, select bank1
  5325     0DA6  1303               	bcf	3,6	;RP1=0, select bank1
  5326     0DA7  1A94               	btfsc	20,5	;volatile
  5327     0DA8  2DAA               	goto	u267_21
  5328     0DA9  2DAB               	goto	u267_20
  5329     0DAA                     u267_21:
  5330     0DAA  2DD1               	goto	i1l91
  5331     0DAB                     u267_20:
  5332     0DAB                     i1l1981:
  5333     0DAB  1914               	btfsc	20,2	;volatile
  5334     0DAC  2DAE               	goto	u268_21
  5335     0DAD  2DAF               	goto	u268_20
  5336     0DAE                     u268_21:
  5337     0DAE  2DD1               	goto	i1l91
  5338     0DAF                     u268_20:
  5339     0DAF                     i1l1983:
  5340                           
  5341                           ;main.c: 77:             z = SSPBUF;
  5342     0DAF  1283               	bcf	3,5	;RP0=0, select bank0
  5343     0DB0  1303               	bcf	3,6	;RP1=0, select bank0
  5344     0DB1  0813               	movf	19,w	;volatile
  5345     0DB2  1683               	bsf	3,5	;RP0=1, select bank1
  5346     0DB3  1303               	bcf	3,6	;RP1=0, select bank1
  5347     0DB4  00C2               	movwf	_z^(0+128)
  5348     0DB5                     i1l1985:
  5349                           
  5350                           ;main.c: 79:             PIR1bits.SSPIF = 0;
  5351     0DB5  1283               	bcf	3,5	;RP0=0, select bank0
  5352     0DB6  1303               	bcf	3,6	;RP1=0, select bank0
  5353     0DB7  118C               	bcf	12,3	;volatile
  5354     0DB8                     i1l1987:
  5355                           
  5356                           ;main.c: 80:             SSPCONbits.CKP = 1;
  5357     0DB8  1614               	bsf	20,4	;volatile
  5358     0DB9                     i1l92:	
  5359                           ;main.c: 81:             while(!SSPSTATbits.BF);
  5360                           
  5361     0DB9  1683               	bsf	3,5	;RP0=1, select bank1
  5362     0DBA  1303               	bcf	3,6	;RP1=0, select bank1
  5363     0DBB  1C14               	btfss	20,0	;volatile
  5364     0DBC  2DBE               	goto	u269_21
  5365     0DBD  2DBF               	goto	u269_20
  5366     0DBE                     u269_21:
  5367     0DBE  2DB9               	goto	i1l92
  5368     0DBF                     u269_20:
  5369     0DBF                     i1l1989:
  5370                           
  5371                           ;main.c: 82:             z = SSPBUF;
  5372     0DBF  1283               	bcf	3,5	;RP0=0, select bank0
  5373     0DC0  1303               	bcf	3,6	;RP1=0, select bank0
  5374     0DC1  0813               	movf	19,w	;volatile
  5375     0DC2  1683               	bsf	3,5	;RP0=1, select bank1
  5376     0DC3  1303               	bcf	3,6	;RP1=0, select bank1
  5377     0DC4  00C2               	movwf	_z^(0+128)
  5378                           
  5379                           ;main.c: 83:             dato = SSPBUF;
  5380     0DC5  1283               	bcf	3,5	;RP0=0, select bank0
  5381     0DC6  1303               	bcf	3,6	;RP1=0, select bank0
  5382     0DC7  0813               	movf	19,w	;volatile
  5383     0DC8  1683               	bsf	3,5	;RP0=1, select bank1
  5384     0DC9  1303               	bcf	3,6	;RP1=0, select bank1
  5385     0DCA  00C1               	movwf	_dato^(0+128)
  5386                           
  5387                           ;main.c: 84:             _delay((unsigned long)((250)*(2000000/4000000.0)));
  5388     0DCB  3029               	movlw	41
  5389     0DCC  00F0               	movwf	??_isr
  5390     0DCD                     u349_27:
  5391     0DCD  0BF0               	decfsz	??_isr,f
  5392     0DCE  2DCD               	goto	u349_27
  5393     0DCF  0000               	nop
  5394                           
  5395                           ;main.c: 86:         }else if(!SSPSTATbits.D_nA && SSPSTATbits.R_nW){
  5396     0DD0  2DF0               	goto	i1l95
  5397     0DD1                     i1l91:
  5398     0DD1  1A94               	btfsc	20,5	;volatile
  5399     0DD2  2DD4               	goto	u270_21
  5400     0DD3  2DD5               	goto	u270_20
  5401     0DD4                     u270_21:
  5402     0DD4  2DF0               	goto	i1l95
  5403     0DD5                     u270_20:
  5404     0DD5                     i1l1991:
  5405     0DD5  1D14               	btfss	20,2	;volatile
  5406     0DD6  2DD8               	goto	u271_21
  5407     0DD7  2DD9               	goto	u271_20
  5408     0DD8                     u271_21:
  5409     0DD8  2DF0               	goto	i1l95
  5410     0DD9                     u271_20:
  5411     0DD9                     i1l1993:
  5412                           
  5413                           ;main.c: 87:             z = SSPBUF;
  5414     0DD9  1283               	bcf	3,5	;RP0=0, select bank0
  5415     0DDA  1303               	bcf	3,6	;RP1=0, select bank0
  5416     0DDB  0813               	movf	19,w	;volatile
  5417     0DDC  1683               	bsf	3,5	;RP0=1, select bank1
  5418     0DDD  1303               	bcf	3,6	;RP1=0, select bank1
  5419     0DDE  00C2               	movwf	_z^(0+128)
  5420     0DDF                     i1l1995:
  5421                           
  5422                           ;main.c: 88:             BF = 0;
  5423     0DDF  1014               	bcf	20,0	;volatile
  5424                           
  5425                           ;main.c: 89:             SSPBUF = ADC;
  5426     0DE0  0843               	movf	_ADC^(0+128),w
  5427     0DE1  1283               	bcf	3,5	;RP0=0, select bank0
  5428     0DE2  1303               	bcf	3,6	;RP1=0, select bank0
  5429     0DE3  0093               	movwf	19	;volatile
  5430     0DE4                     i1l1997:
  5431                           
  5432                           ;main.c: 90:             SSPCONbits.CKP = 1;
  5433     0DE4  1614               	bsf	20,4	;volatile
  5434                           
  5435                           ;main.c: 91:             _delay((unsigned long)((250)*(2000000/4000000.0)));
  5436     0DE5  3029               	movlw	41
  5437     0DE6  00F0               	movwf	??_isr
  5438     0DE7                     u350_27:
  5439     0DE7  0BF0               	decfsz	??_isr,f
  5440     0DE8  2DE7               	goto	u350_27
  5441     0DE9  0000               	nop
  5442     0DEA                     i1l97:	
  5443                           ;main.c: 92:             while(SSPSTATbits.BF);
  5444                           
  5445     0DEA  1683               	bsf	3,5	;RP0=1, select bank1
  5446     0DEB  1303               	bcf	3,6	;RP1=0, select bank1
  5447     0DEC  1814               	btfsc	20,0	;volatile
  5448     0DED  2DEF               	goto	u272_21
  5449     0DEE  2DF0               	goto	u272_20
  5450     0DEF                     u272_21:
  5451     0DEF  2DEA               	goto	i1l97
  5452     0DF0                     u272_20:
  5453     0DF0                     i1l95:
  5454                           
  5455                           ;main.c: 95:         PIR1bits.SSPIF = 0;
  5456     0DF0  1283               	bcf	3,5	;RP0=0, select bank0
  5457     0DF1  1303               	bcf	3,6	;RP1=0, select bank0
  5458     0DF2  118C               	bcf	12,3	;volatile
  5459     0DF3                     i1l100:
  5460     0DF3  0872               	movf	??_isr+2,w
  5461     0DF4  008A               	movwf	10
  5462     0DF5  0E71               	swapf	??_isr+1,w
  5463     0DF6  0083               	movwf	3
  5464     0DF7  0EFE               	swapf	btemp,f
  5465     0DF8  0E7E               	swapf	btemp,w
  5466     0DF9  0009               	retfie
  5467     0DFA                     __end_of_isr:
  5468     007E                     btemp	set	126	;btemp
  5469     007E                     wtemp0	set	126
  5470                           
  5471                           	psect	intentry
  5472     0004                     __pintentry:	
  5473                           ;incstack = 0
  5474                           ; Regs used in _isr: [wreg]
  5475                           
  5476     0004                     interrupt_function:
  5477     007E                     saved_w	set	btemp
  5478     0004  00FE               	movwf	btemp
  5479     0005  0E03               	swapf	3,w
  5480     0006  00F1               	movwf	??_isr+1
  5481     0007  080A               	movf	10,w
  5482     0008  00F2               	movwf	??_isr+2
  5483     0009  120A  158A  2D8D   	ljmp	_isr
  5484                           
  5485                           	psect	idloc
  5486                           
  5487                           ;Config register IDLOC0 @ 0x2000
  5488                           ;	unspecified, using default values
  5489     2000                     	org	8192
  5490     2000  3FFF               	dw	16383
  5491                           
  5492                           ;Config register IDLOC1 @ 0x2001
  5493                           ;	unspecified, using default values
  5494     2001                     	org	8193
  5495     2001  3FFF               	dw	16383
  5496                           
  5497                           ;Config register IDLOC2 @ 0x2002
  5498                           ;	unspecified, using default values
  5499     2002                     	org	8194
  5500     2002  3FFF               	dw	16383
  5501                           
  5502                           ;Config register IDLOC3 @ 0x2003
  5503                           ;	unspecified, using default values
  5504     2003                     	org	8195
  5505     2003  3FFF               	dw	16383
  5506                           
  5507                           	psect	config
  5508                           
  5509                           ;Config register CONFIG1 @ 0x2007
  5510                           ;	Oscillator Selection bits
  5511                           ;	FOSC = INTRC_NOCLKOUT, INTOSCIO oscillator: I/O function on RA6/OSC2/CLKOUT pin, I/O f
      +                          unction on RA7/OSC1/CLKIN
  5512                           ;	Watchdog Timer Enable bit
  5513                           ;	WDTE = OFF, WDT disabled and can be enabled by SWDTEN bit of the WDTCON register
  5514                           ;	Power-up Timer Enable bit
  5515                           ;	PWRTE = OFF, PWRT disabled
  5516                           ;	RE3/MCLR pin function select bit
  5517                           ;	MCLRE = OFF, RE3/MCLR pin function is digital input, MCLR internally tied to VDD
  5518                           ;	Code Protection bit
  5519                           ;	CP = OFF, Program memory code protection is disabled
  5520                           ;	Data Code Protection bit
  5521                           ;	CPD = OFF, Data memory code protection is disabled
  5522                           ;	Brown Out Reset Selection bits
  5523                           ;	BOREN = OFF, BOR disabled
  5524                           ;	Internal External Switchover bit
  5525                           ;	IESO = OFF, Internal/External Switchover mode is disabled
  5526                           ;	Fail-Safe Clock Monitor Enabled bit
  5527                           ;	FCMEN = OFF, Fail-Safe Clock Monitor is disabled
  5528                           ;	Low Voltage Programming Enable bit
  5529                           ;	LVP = OFF, RB3 pin has digital I/O, HV on MCLR must be used for programming
  5530                           ;	In-Circuit Debugger Mode bit
  5531                           ;	DEBUG = 0x1, unprogramme  5532     2007                     	org	8199
  5533     2007  20D4               	dw	8404
  5534                           
  5535                           ;Config register CONFIG2 @ 0x2008
  5536                           ;	Brown-out Reset Selection bit
  5537                           ;	BOR4V = BOR40V, Brown-out Reset set to 4.0V
  5538                           ;	Flash Program Memory Self Write Enable bits
  5539                           ;	WRT = OFF, Write protection off
  5540     2008                     	org	8200
  5541     2008  3FFF               	dw	16383

Data Sizes:
    Strings     0
    Constant    4
    Data        0
    BSS         16
    Persistent  0
    Stack       0

Auto Spaces:
    Space          Size  Autos    Used
    COMMON           14      8      11
    BANK0            80     80      80
    BANK1            80     23      36
    BANK3            96      0       0
    BANK2            96      0       0

Pointer List with Targets:

    None.

Critical Paths under _main in COMMON

    _main->_initPwm
    _setup->_I2C_Slave_Init
    _initPwm->___lldiv
    _applyPWMDutyCycle->_pwmMaxDuty
    _pwmMaxDuty->___lldiv
    ___xxtofl->_pwmMaxDuty
    ___fltol->_pwmMaxDuty
    ___flmul->_pwmMaxDuty

Critical Paths under _isr in COMMON

    None.

Critical Paths under _main in BANK0

    _main->_applyPWMDutyCycle
    _initPwm->___lldiv
    _applyPWMDutyCycle->___fltol
    _pwmMaxDuty->___lldiv
    ___xxtofl->_pwmMaxDuty
    ___fltol->___flmul
    ___flmul->___fldiv
    ___fldiv->___xxtofl

Critical Paths under _isr in BANK0

    None.

Critical Paths under _main in BANK1

    _main->_applyPWMDutyCycle
    _applyPWMDutyCycle->___fltol
    ___fltol->___flmul

Critical Paths under _isr in BANK1

    None.

Critical Paths under _main in BANK3

    None.

Critical Paths under _isr in BANK3

    None.

Critical Paths under _main in BANK2

    None.

Critical Paths under _isr in BANK2

    None.

Call Graph Tables:

 ---------------------------------------------------------------------------------
 (Depth) Function   	        Calls       Base Space   Used Autos Params    Refs
 ---------------------------------------------------------------------------------
 (0) _main                                                 2     2      0    8511
                                             78 BANK0      2     2      0
                         _ADC_config
                           _ADC_read
                  _applyPWMDutyCycle
                            _initPwm
                              _setup
                        _setupINTOSC
                           _setupPWM
 ---------------------------------------------------------------------------------
 (1) _setupPWM                                             0     0      0       0
 ---------------------------------------------------------------------------------
 (1) _setupINTOSC                                          1     1      0     176
                                              3 COMMON     1     1      0
 ---------------------------------------------------------------------------------
 (1) _setup                                                0     0      0      22
                     _I2C_Slave_Init
 ---------------------------------------------------------------------------------
 (2) _I2C_Slave_Init                                       1     1      0      22
                                              3 COMMON     1     1      0
 ---------------------------------------------------------------------------------
 (1) _initPwm                                              8     4      4     902
                                              4 COMMON     4     4      0
                                             13 BANK0      4     0      4
                            ___lldiv
 ---------------------------------------------------------------------------------
 (1) _applyPWMDutyCycle                                    8     2      6    7127
                                             76 BANK0      2     2      0
                                             17 BANK1      6     0      6
                            ___fldiv
                            ___flmul
                            ___fltol
                           ___xxtofl
                         _pwmMaxDuty
 ---------------------------------------------------------------------------------
 (2) _pwmMaxDuty                                           8     4      4     902
                                              4 COMMON     4     4      0
                                             13 BANK0      4     0      4
                            ___lldiv
 ---------------------------------------------------------------------------------
 (2) ___lldiv                                             14     6      8     781
                                              3 COMMON     1     1      0
                                              0 BANK0     13     5      8
 ---------------------------------------------------------------------------------
 (2) ___xxtofl                                            14    10      4     474
                                             17 BANK0     14    10      4
                         _pwmMaxDuty (ARG)
 ---------------------------------------------------------------------------------
 (2) ___fltol                                             10     6      4     427
                                             70 BANK0      6     6      0
                                             13 BANK1      4     0      4
                            ___fldiv (ARG)
                            ___flmul (ARG)
                           ___xxtofl (ARG)
                         _pwmMaxDuty (ARG)
 ---------------------------------------------------------------------------------
 (2) ___flmul                                             26    18      8    3353
                                             57 BANK0     13     5      8
                                              0 BANK1     13    13      0
                          __Umul8_16
                            ___fldiv (ARG)
                           ___xxtofl (ARG)
                         _pwmMaxDuty (ARG)
 ---------------------------------------------------------------------------------
 (3) __Umul8_16                                            9     7      2     980
                                              3 COMMON     4     2      2
                                              0 BANK0      5     5      0
 ---------------------------------------------------------------------------------
 (2) ___fldiv                                             26    18      8    1273
                                             31 BANK0     26    18      8
                           ___xxtofl (ARG)
 ---------------------------------------------------------------------------------
 (1) _ADC_read                                             4     2      2     142
                                              3 COMMON     4     2      2
 ---------------------------------------------------------------------------------
 (1) _ADC_config                                           3     1      2     142
                                              3 COMMON     3     1      2
 ---------------------------------------------------------------------------------
 Estimated maximum stack depth 3
 ---------------------------------------------------------------------------------
 (Depth) Function   	        Calls       Base Space   Used Autos Params    Refs
 ---------------------------------------------------------------------------------
 (4) _isr                                                  3     3      0       0
                                              0 COMMON     3     3      0
 ---------------------------------------------------------------------------------
 Estimated maximum stack depth 4
 ---------------------------------------------------------------------------------

 Call Graph Graphs:

 _main (ROOT)
   _ADC_config
   _ADC_read
   _applyPWMDutyCycle
     ___fldiv
       ___xxtofl (ARG)
         _pwmMaxDuty (ARG)
           ___lldiv
     ___flmul
       __Umul8_16
       ___fldiv (ARG)
       ___xxtofl (ARG)
       _pwmMaxDuty (ARG)
     ___fltol
       ___fldiv (ARG)
       ___flmul (ARG)
       ___xxtofl (ARG)
       _pwmMaxDuty (ARG)
     ___xxtofl
     _pwmMaxDuty
   _initPwm
     ___lldiv
   _setup
     _I2C_Slave_Init
   _setupINTOSC
   _setupPWM

 _isr (ROOT)

 Address spaces:
Name               Size   Autos  Total    Cost      Usage
BITCOMMON            E      0       0       0        0.0%
EEDATA             100      0       0       0        0.0%
NULL                 0      0       0       0        0.0%
CODE                 0      0       0       0        0.0%
COMMON               E      8       B       1       78.6%
BITSFR0              0      0       0       1        0.0%
SFR0                 0      0       0       1        0.0%
BITSFR1              0      0       0       2        0.0%
SFR1                 0      0       0       2        0.0%
STACK                0      0       0       2        0.0%
ABS                  0      0      7F       3        0.0%
BITBANK0            50      0       0       4        0.0%
BITSFR3              0      0       0       4        0.0%
SFR3                 0      0       0       4        0.0%
BANK0               50     50      50       5      100.0%
BITSFR2              0      0       0       5        0.0%
SFR2                 0      0       0       5        0.0%
BITBANK1            50      0       0       6        0.0%
BANK1               50     17      24       7       45.0%
BITBANK3            60      0       0       8        0.0%
BANK3               60      0       0       9        0.0%
BITBANK2            60      0       0      10        0.0%
BANK2               60      0       0      11        0.0%
DATA                 0      0      7F      12        0.0%


Microchip Technology PIC Macro Assembler V2.40 build 20220703182018 
Symbol Table                                                                                   Fri Mar 03 11:34:24 2023

              ___fldiv@aexp 0058                ___fldiv@bexp 0057                           _z 00C2  
                         pc 0002                ___fldiv@sign 0050                 _SSPSTATbits 0094  
                        _BF 04A0                          fsr 0004         __Umul8_16@word_mpld 0022  
                       l200 0D24                         l121 0BBA                         l122 0BBD  
                       l220 0C1B                         l132 07CA                         l116 0BA8  
                       l108 0F42                         l221 0C28                         l125 07FD  
                       l222 0C39                         l231 0CA6                         l119 0BB6  
                       l128 0C72                         l226 0C85                         l219 0C0E  
                       l235 0CC0                         l228 0C89                         l229 0CC5  
                       _ADC 00C3                         l192 0CD1                         l193 0CDD  
                       l194 0CE9                         l187 0BD7                         l195 0CF5  
                       l516 0E7C                         l196 0D01                         l509 0E93  
                       l197 0D0D                         l198 0D18                         l519 0E93  
                       l359 0D8C                         l712 052D                         l731 0BEE  
                       l724 050F                         l733 0C00                         l718 0469  
                       l672 0584                         l674 0700                         l770 0FD5  
                       l762 0FAD                         l756 0F6A                         l694 06E8  
                       l758 0FFF                         l696 06F6                         l688 0676  
                       l769 0FC9                         _GIE 005F                         _PR2 0092  
                       _isr 0D8D                         _vel 007A                ___flmul@aexp 00A1  
              ___flmul@bexp 00A6                ___flmul@sign 00A0                ___flmul@temp 00AB  
              ___flmul@prod 00A7                ___fltol@exp1 006B                        l2101 0E44  
                      l2103 0E48                        l2111 0E66                        l2201 035F  
                      l2121 0E86                        l2211 041B                        l2203 039D  
                      l2131 003D                        l2123 0025                        l2051 0D47  
                      l2221 043D                        l2213 0421                        l2205 03E5  
                      l2141 0060                        l2133 0044                        l2125 002C  
                      l2117 0E6D                        l2109 0E50                        l2061 0D75  
                      l2053 0D4B                        l2045 0D25                        l1501 0BD1  
                      l2301 0F25                        l2071 0BDD                        l2231 0470  
                      l2223 043E                        l2215 0422                        l2207 03F4  
                      l2151 007F                        l2143 0067                        l2135 0049  
                      l2127 0034                        l2119 0E81                        l2063 0D7E  
                      l2055 0D54                        l2047 0D37                        l1503 0BD4  
                      l2303 0F27                        l1601 05C5                        l2073 0BE4  
                      l2233 0475                        l2241 04C2                        l2225 0442  
                      l2217 0431                        l2209 040C                        l2161 00A2  
                      l2153 0084                        l2145 006F                        l2137 0053  
                      l2129 003A                        l2057 0D66                        l2049 0D3A  
                      l2065 0D84                        l2305 0F2D                        l1611 05E4  
                      l1603 05CD                        l2075 0BE8                        l2251 04F5  
                      l2243 04CF                        l2235 0483                        l2227 0464  
                      l2219 0439                        l2171 00DF                        l2163 00A7  
                      l2155 008E                        l2147 0075                        l2139 0056  
                      l2059 0D74                        l2083 07CB                        l2307 0F3D  
                      l1621 0616                        l1613 05F6                        l1605 05D5  
                      l2077 0BF7                        l2069 0BDB                        l2253 0501  
                      l2245 04DA                        l2237 0487                        l2181 01DC  
                      l2173 010C                        l2157 0091                        l2149 0078  
                      l2093 0E12                        l1631 0637                        l1623 0617  
                      l1615 05FA                        l1607 05DD                        l1551 053B  
                      l2079 0BFC                        l2255 0505                        l2247 04E9  
                      l2239 04BC                        l2191 0273                        l2183 01EB  
                      l2175 013C                        l2167 00B2                        l2159 009B  
                      l2095 0E35                        l2087 0DFA                        l2271 07A4  
                      l2263 0C3A                        l1641 0650                        l1633 0639  
                      l1625 0625                        l1617 05FB                        l1609 05DF  
                      l1561 054F                        l1553 053C                        l1545 052E  
                      l2257 0506                        l2249 04F3                        l2193 0290  
                      l2185 01F9                        l2177 017C                        l2169 00C2  
                      l2097 0E38                        l2089 0E07                        l2273 07B6  
                      l2265 0701                        l2281 0ECF                        l1651 0673  
                      l1635 0642                        l1643 0656                        l1619 0604  
                      l1627 0629                        l1571 0566                        l1555 0541  
                      l1563 0551                        l1547 0533                        l2259 0517  
                      l2195 02C5                        l2187 022E                        l2179 01AC  
                      l2099 0E40                        l2267 070C                        l1491 0BBF  
                      l2291 0EE9                        l2283 0ED2                        l2275 0E94  
                      l1661 0692                        l1645 065A                        l1637 0646  
                      l1629 062F                        l1581 057A                        l1573 0567  
                      l1565 0559                        l1557 0546                        l1549 0537  
                      l2197 030A                        l2189 023E                        l2269 079E  
                      l1493 0BCD                        l1901 0BB0                        l2293 0EFE  
                      l2285 0ED4                        l2277 0EB3                        l1671 06DB  
                      l1663 06AB                        l1655 067B                        l1647 065B  
                      l1639 0647                        l1575 056C                        l1583 057C  
                      l1567 055E                        l1559 054E                        l2199 031A  
                      l1831 0F52                        l1495 0BCE                        l1903 0BB1  
                      l2295 0F08                        l2287 0ED9                        l2279 0EC6  
                      l1921 0C05                        l1681 06F2                        l1673 06DF  
                      l1657 0680                        l1665 06B1                        l1649 065F  
                      l1585 058C                        l1593 05A5                        l1577 0571  
                      l1569 0562                        l1841 0F7E                        l1833 0F62  
                      l1497 0BCF                        l1905 0BB5                        l2297 0F19  
                      l2289 0EDD                        l1923 0C12                        l1931 0C79  
                      l1675 06E7                        l1667 06BE                        l1659 068E  
                      l1595 05AA                        l1587 0598                        l1579 0579  
                      l1851 0FB4                        l1843 0F8B                        l1835 0F72  
                      l1827 0F49                        l1499 0BD0                        l2299 0F20  
                      l1925 0C1F                        l1933 0C7D                        l1941 0C92  
                      l1677 06EC                        l1669 06CC                        l1589 059C  
                      l1861 0FED                        l1853 0FBF                        l1845 0F92  
                      l1829 0F4E                        l1927 0C34                        l1919 0C01  
                      l1943 0C98                        l1935 0C82                        l1679 06F0  
                      l1599 05B3                        l1863 0FF2                        l1855 0FC3  
                      l1847 0F96                        l1839 0F7B                        l1871 0CC7  
                      l1945 0C9E                        l1953 0CAB                        l1937 0C8A  
                      l1929 0C73                        l1865 0FF6                        l1857 0FCD  
                      l1849 0FA4                        l1881 0CFB                        l1873 0CCD  
                      l1955 0CB2                        l1947 0CA3                        l1867 0FF7  
                      l1859 0FD7                        l1891 0B94                        l1883 0D07  
                      l1875 0CD7                        l1957 0CB8                        l1893 0BA1  
                      l1885 0D12                        l1877 0CE3                        l1959 0CBD  
                      l1895 0BA2                        l1887 0D1D                        l1879 0CEF  
                      l1889 0D21                        l1897 0BA9                        l1899 0BAC  
                      _ADIF 0066                        ?_isr 0070                        u3000 0044  
                      u3001 0043                        u3010 0049                        u3011 0048  
                      u3020 0075                        u2300 0F72                        u3101 01C2  
                      u3021 0074                        u2301 0F71                        u3102 01CD  
                      u3030 007F                        u3103 01D8                        u3031 007E  
                      u3200 03B9                        u3040 0084                        u2400 0FF2  
                      u2320 0F91                        u3121 0214                        u3041 0083  
                      u2401 0FF1                        u2321 0F90                        u3122 021F  
                      u3050 00A2                        u2410 0FF6                        u3211 03CB  
                      u3131 0259                        u3123 022A                        u3115 01E0  
                      u3051 00A1                        u2411 0FF5                        u2315 0F83  
                      u1700 05E4                        u1620 053B                        u3300 0475  
                      u3212 03D6                        u3132 0264                        u3060 00A7  
                      u2340 0FB3                        u2420 0CCD                        u2500 0BBA  
                      u1701 05E3                        u1621 053A                        u3301 0474  
                      u3213 03E1                        u3205 03B4                        u3133 026F  
                      u3061 00A6                        u2341 0FB2                        u2421 0CCC  
                      u2501 0BB9                        u1630 0541                        u3310 0487  
                      u2430 0CD7                        u1631 0540                        u3311 0486  
                      u3151 02AB                        u3071 0122                        u2335 0FA5  
                      u2431 0CD6                        u2600 0C98                        u1640 0546  
                      u3320 04A4                        u3240 0421                        u3152 02B6  
                      u3072 012D                        u2360 0FC3                        u2280 0F4E  
                      u2440 0CE3                        u3400 0ED9                        u2601 0C97  
                      u1641 0545                        u3241 0420                        u3225 03E9  
                      u3161 02F0                        u3153 02C1                        u3145 0277  
                      u3081 0152                        u3073 0138                        u2361 0FC2  
                      u2281 0F4D                        u2441 0CE2                        u3401 0ED8  
                      u2610 0CAA                        u1810 065A                        u1730 05FA  
                      u1650 0566                        u3330 04CF                        u3162 02FB  
                      u3082 015D                        u2370 0FC9                        u2290 0F52  
                      u2450 0CEF                        u3410 0F08                        u2611 0CA9  
                      u1811 0659                        u1731 05F9                        u1715 05E6  
                      u1651 0565                        u3331 04CE                        u3235 0410  
                      u3171 0335                        u3163 0306                        u3091 0192  
                      u3083 0168                        u2371 0FC8                        u2355 0FB8  
                      u2291 0F51                        u2451 0CEE                        u3411 0F07  
                      u2620 0CB2                        u1900 06F0                        u1820 065F  
                      u1660 056C                        u3340 04E9                        u3260 043D  
                      u3180 0371                        u3172 0340                        u3092 019D  
                      u2380 0FCD                        u2460 0CFB                        u3420 0F25  
                      u2621 0CB1                        u1901 06EF                        u1821 065E  
                      u1805 0649                        u1725 05EF                        u1661 056B  
                      u3341 04E8                        u3325 049F                        u3261 043C  
                      u3173 034B                        u3093 01A8                        u2381 0FCC  
                      u2461 0CFA                        u3421 0F24                        u2550 0C05  
                      u2630 0CC4                        u1830 0673                        u1750 0616  
                      u1670 0571                        u3350 0505                        u3270 0442  
                      u2390 0FE2                        u2470 0D07                        u3430 0F2D  
                      u2551 0C04                        u2631 0CC3                        u1831 0672  
                      u1751 0615                        u1671 0570                        u3351 0504  
                      u3335 04CB                        u3271 0441                        u3255 0426  
                      u3191 0383                        u2471 0D06                        u3431 0F2C  
                      u3415 0F04                        u2560 0C12                        u1840 067A  
                      u1760 062F                        u1680 058C                        u3280 0464  
                      u3192 038E                        u2800 0D4B                        u3360 0C4A  
                      u2480 0D12                        u2561 0C11                        u1841 0679  
                      u1761 062E                        u1745 05FD                        u1681 058B  
                      u3345 04E5                        u3281 0463                        u3193 0399  
                      u3185 036C                        u2801 0D4A                        u2481 0D11  
                      u2570 0C1F                        u1850 0680                        u1770 0637  
                      u1690 05AA                        u3290 046F                        u3370 0C53  
                      u2490 0D1D                        u2571 0C1E                        u1851 067F  
                      u1771 0636                        u1755 0612                        u1691 05A9  
                      u3291 046E                        u2395 0FDD                        u2491 0D1C  
                      u2580 0C79                        u1860 0692                        u2900 0E30  
                      u2820 0D66                        u3380 070C                        u2581 0C78  
                      u1861 0691                        u2821 0D65                        u3381 070B  
                      u3365 0C45                        u2590 0C89                        u1870 06A1  
                      u1790 0646                        u2910 0E48                        u2591 0C88  
                      u1791 0645                        u2911 0E47                        u2815 0D4D  
                      u3375 0C4E                        u1880 06BE                        u2920 0E4F  
                      u2840 0D84                        u3457 0C7F                        u1881 06BD  
                      u1785 063B                        u2921 0E4E                        u2905 0E2B  
                      u2841 0D83                        u2825 0D62                        u1890 06DB  
                      u2850 0BE8                        u3467 0CA0                        u1891 06DA  
                      u1875 069C                        u2851 0BE7                        u2835 0D76  
                      u3395 07AB                        _PEIE 005E                        u2940 0E65  
                      u2780 0D37                        u3477 0CBA                        u1885 06BA  
                      u2941 0E64                        u2781 0D36                        u2870 0BFC  
                      u2950 0E6C                        u3487 0C36                        u1895 06D7  
                      u2871 0BFB                        u2951 0E6B                        u2935 0E51  
                      u2880 07DB                        u2865 0BEF                        u2970 0E81  
                      u2890 0E07                        u2971 0E80                        u2891 0E06  
                      u2795 0D3C                        u2980 0E86                        u2981 0E85  
                      u2965 0E6F                        u2885 07D6                        u2990 003A  
                      u2991 0039                        i1l91 0DD1                        i1l92 0DB9  
                      i1l95 0DF0                        i1l97 0DEA                        _dato 00C1  
                      _main 0E94                        btemp 007E                        start 000C  
          __end_of_ADC_read 0CC6             ___fldiv@new_exp 0051                       ??_isr 0070  
             ___fltol@sign1 006A                       ?_main 0070             __end_of___fldiv 0701  
           __end_of___flmul 052E             __end_of___fltol 0E94                       _ANSEL 0188  
           __end_of___lldiv 0D8D                       i1l100 0DF3                       _PORTB 0006  
                     _PORTC 0007                       _PORTD 0008                       _TRISB 0086  
                     _TRISD 0088                       _SSPIE 0463                       _SSPIF 0063  
           __end_of_initPwm 0C73                       _valDC 00BF                       _setup 0B94  
                     pclath 000A             __end_of_pwmFreq 080A                       status 0003  
                     wtemp0 007E             __initialization 000F                __end_of_main 0F46  
                    ??_main 006E                      _ADRESH 001E                      _CCPR1L 0015  
                    ?_setup 0070                      _ANSELH 0189                      i1l1971 0D9C  
                    i1l1981 0DAB                      i1l1973 0DA0                      i1l1965 0D8D  
                    i1l1991 0DD5                      i1l1983 0DAF                      i1l1975 0DA3  
                    i1l1967 0D93                      i1l1993 0DD9                      i1l1985 0DB5  
                    i1l1977 0DA4                      i1l1969 0D98                      i1l1995 0DDF  
                    i1l1987 0DB8                      i1l1979 0DA5                      i1l1997 0DE4  
                    i1l1989 0DBF                      u270_20 0DD5                      u270_21 0DD4  
                    u350_27 0DE7                      u271_20 0DD9                      u271_21 0DD8  
                    u272_20 0DF0                      u264_20 0D93                      u272_21 0DEF  
                    u264_21 0D92                      u265_20 0D98                      u265_21 0D97  
                    u266_20 0D9C                      u266_21 0D9B                      u267_20 0DAB  
                    u267_21 0DAA                      u268_20 0DAF                      u268_21 0DAE  
                    u269_20 0DBF                      u269_21 0DBE                      u349_27 0DCD  
                    _TMR2IF 0061                      _TMR2ON 0092                      _SSPADD 0093  
                    _TRISC3 043B                      _TRISC4 043C                      _SSPBUF 0013  
                    _SSPCON 0014            __end_of___xxtofl 1000                 initPwm@freq 002D  
              ??_ADC_config 0075                   ??___fldiv 0047                   ??___flmul 0061  
                 ??___fltol 0066                   ??___lldiv 0073                      _valDCH 00BB  
                    _valDCL 00BD                ?_setupINTOSC 0070                   ??_initPwm 0074  
          __end_of_setupPWM 0BBE                      saved_w 007E                   ?_ADC_read 0073  
        __end_of_ADC_config 0C3A                ___xxtofl@arg 003B                ___xxtofl@exp 003A  
              ___xxtofl@val 0031  applyPWMDutyCycle@dutyCycle 00B1     __end_of__initialization 0021  
                ___fltol@f1 00AD              __pcstackCOMMON 0070               __end_of_setup 0BA9  
           ADC_read@channel 0073       applyPWMDutyCycle@freq 00B3                  ??_ADC_read 0075  
                   ??_setup 0074       I2C_Slave_Init@address 0073                  __pbssBANK1 00B7  
         __end_of__Umul8_16 0C01                  __pmaintext 0E94                  __pintentry 0004  
                   _CCP1CON 0017                     _ADC_RES 0078           _applyPWMDutyCycle 0701  
        ?_applyPWMDutyCycle 00B1                   ?___xxtofl 0031         ??_applyPWMDutyCycle 006C  
                   _SSPCON2 0091                     _SSPSTAT 0094                  __stringtab 0800  
                 ?_setupPWM 0070                     ___fldiv 052E   __end_of_applyPWMDutyCycle 07CB  
                   ___flmul 0025                     ___fltol 0DFA                     ___lldiv 0D25  
                 _ANSELbits 0188                     __ptext1 0BA9                     __ptext2 0CC6  
                   __ptext3 0B94                     __ptext4 0BBE                     __ptext5 0C3A  
                   __ptext6 0701                     __ptext7 07CB                     __ptext8 0D25  
                   __ptext9 0F46                   _T2CONbits 0012                     _initPwm 0C3A  
                ??___xxtofl 0035                     _pwmFreq 0806        end_of_initialization 0021  
           ___lldiv@divisor 0020             ___lldiv@counter 002C              _I2C_Slave_Init 0BBE  
                ??_setupPWM 0073                  _pwmMaxDuty 07CB                   _PORTAbits 0005  
                 _PORTDbits 0008               ___xxtofl@sign 0039                   _TRISAbits 0085  
                 _TRISCbits 0087                 ___fldiv@grs 0053                 ___fldiv@rem 004C  
               ___flmul@grs 00A2      __end_of_I2C_Slave_Init 0BD8         start_initialization 000F  
               __end_of_isr 0DFA           ADC_config@channel 0073             ?_I2C_Slave_Init 0070  
                 __Umul8_16 0BD8                 ?_pwmMaxDuty 002D                   ___fldiv@a 003F  
                 ___fldiv@b 0043                   ___flmul@a 005D                   ___flmul@b 0059  
               __pbssCOMMON 0078                   ___latbits 0002               __pcstackBANK0 0020  
             __pcstackBANK1 00A0             setupINTOSC@IRCF 0073              _dutyCycleApply 00B7  
                  ?___fldiv 003F                    ?___flmul 0059                    ?___fltol 00AD  
                  ?___lldiv 0020                  ?__Umul8_16 0073                   __pstrings 0800  
                  ?_initPwm 002D                    _ADC_read 0C73                   _dutycycle 00B9  
         interrupt_function 0004                    _PIR1bits 000C                  _ADCON0bits 001F  
               __stringbase 0805                  _ADCON1bits 009F               ??_setupINTOSC 0073  
                _ADC_config 0C01                 ??__Umul8_16 0075          __end_of__stringtab 0806  
                  ___xxtofl 0F46                    __ptext10 0DFA                    __ptext11 0025  
                  __ptext12 0BD8                    __ptext13 052E                    __ptext14 0C73  
                  __ptext15 0C01                    __ptext16 0D8D         __end_of_setupINTOSC 0D25  
          ??_I2C_Slave_Init 0073              pwmMaxDuty@freq 002D                    _setupPWM 0BA9  
              ??_pwmMaxDuty 0074                  _INTCONbits 000B                    intlevel1 0000  
          ___lldiv@dividend 0024          __end_of_pwmMaxDuty 07FE                   stringcode 0800  
                _OSCCONbits 008F                 ?_ADC_config 0073      __Umul8_16@multiplicand 0073  
               _setupINTOSC 0CC6            ___lldiv@quotient 0028                    stringdir 0800  
                  stringtab 0800                 _SSPCON2bits 0091        __Umul8_16@multiplier 0024  
                _SSPCONbits 0014           __Umul8_16@product 0020  
